
FigerPrint.elf:     file format elf32-avr

Sections:
Idx Name          Size      VMA       LMA       File off  Algn
  0 .text         00000e72  00000000  00000000  00000094  2**1
                  CONTENTS, ALLOC, LOAD, READONLY, CODE
  1 .data         0000003c  00800060  00000e72  00000f06  2**0
                  CONTENTS, ALLOC, LOAD, DATA
  2 .bss          0000000a  0080009c  0080009c  00000f42  2**0
                  ALLOC
  3 .stab         00001488  00000000  00000000  00000f44  2**2
                  CONTENTS, READONLY, DEBUGGING
  4 .stabstr      000008d3  00000000  00000000  000023cc  2**0
                  CONTENTS, READONLY, DEBUGGING

Disassembly of section .text:

00000000 <__vectors>:
   0:	0c 94 2a 00 	jmp	0x54	; 0x54 <__ctors_end>
   4:	0c 94 47 00 	jmp	0x8e	; 0x8e <__bad_interrupt>
   8:	0c 94 47 00 	jmp	0x8e	; 0x8e <__bad_interrupt>
   c:	0c 94 47 00 	jmp	0x8e	; 0x8e <__bad_interrupt>
  10:	0c 94 47 00 	jmp	0x8e	; 0x8e <__bad_interrupt>
  14:	0c 94 47 00 	jmp	0x8e	; 0x8e <__bad_interrupt>
  18:	0c 94 47 00 	jmp	0x8e	; 0x8e <__bad_interrupt>
  1c:	0c 94 47 00 	jmp	0x8e	; 0x8e <__bad_interrupt>
  20:	0c 94 47 00 	jmp	0x8e	; 0x8e <__bad_interrupt>
  24:	0c 94 47 00 	jmp	0x8e	; 0x8e <__bad_interrupt>
  28:	0c 94 47 00 	jmp	0x8e	; 0x8e <__bad_interrupt>
  2c:	0c 94 47 00 	jmp	0x8e	; 0x8e <__bad_interrupt>
  30:	0c 94 47 00 	jmp	0x8e	; 0x8e <__bad_interrupt>
  34:	0c 94 47 00 	jmp	0x8e	; 0x8e <__bad_interrupt>
  38:	0c 94 47 00 	jmp	0x8e	; 0x8e <__bad_interrupt>
  3c:	0c 94 47 00 	jmp	0x8e	; 0x8e <__bad_interrupt>
  40:	0c 94 47 00 	jmp	0x8e	; 0x8e <__bad_interrupt>
  44:	0c 94 47 00 	jmp	0x8e	; 0x8e <__bad_interrupt>
  48:	0c 94 47 00 	jmp	0x8e	; 0x8e <__bad_interrupt>
  4c:	0c 94 47 00 	jmp	0x8e	; 0x8e <__bad_interrupt>
  50:	0c 94 47 00 	jmp	0x8e	; 0x8e <__bad_interrupt>

00000054 <__ctors_end>:
  54:	11 24       	eor	r1, r1
  56:	1f be       	out	0x3f, r1	; 63
  58:	cf e5       	ldi	r28, 0x5F	; 95
  5a:	d4 e0       	ldi	r29, 0x04	; 4
  5c:	de bf       	out	0x3e, r29	; 62
  5e:	cd bf       	out	0x3d, r28	; 61

00000060 <__do_copy_data>:
  60:	10 e0       	ldi	r17, 0x00	; 0
  62:	a0 e6       	ldi	r26, 0x60	; 96
  64:	b0 e0       	ldi	r27, 0x00	; 0
  66:	e2 e7       	ldi	r30, 0x72	; 114
  68:	fe e0       	ldi	r31, 0x0E	; 14
  6a:	02 c0       	rjmp	.+4      	; 0x70 <.do_copy_data_start>

0000006c <.do_copy_data_loop>:
  6c:	05 90       	lpm	r0, Z+
  6e:	0d 92       	st	X+, r0

00000070 <.do_copy_data_start>:
  70:	ac 39       	cpi	r26, 0x9C	; 156
  72:	b1 07       	cpc	r27, r17
  74:	d9 f7       	brne	.-10     	; 0x6c <.do_copy_data_loop>

00000076 <__do_clear_bss>:
  76:	10 e0       	ldi	r17, 0x00	; 0
  78:	ac e9       	ldi	r26, 0x9C	; 156
  7a:	b0 e0       	ldi	r27, 0x00	; 0
  7c:	01 c0       	rjmp	.+2      	; 0x80 <.do_clear_bss_start>

0000007e <.do_clear_bss_loop>:
  7e:	1d 92       	st	X+, r1

00000080 <.do_clear_bss_start>:
  80:	a6 3a       	cpi	r26, 0xA6	; 166
  82:	b1 07       	cpc	r27, r17
  84:	e1 f7       	brne	.-8      	; 0x7e <.do_clear_bss_loop>
  86:	0e 94 67 02 	call	0x4ce	; 0x4ce <main>
  8a:	0c 94 37 07 	jmp	0xe6e	; 0xe6e <_exit>

0000008e <__bad_interrupt>:
  8e:	0c 94 00 00 	jmp	0	; 0x0 <__vectors>

00000092 <DIO_VoidInit>:
volatile u8* const DIO_u8ArrPORT[4]={&PORTA,&PORTB,&PORTC,&PORTD};
volatile u8* const DIO_u8ArrDDR[4]= {&DDRA,&DDRB,&DDRC,&DDRD};
volatile u8* const DIO_u8ArrPIN[4]= {&PINA,&PINB,&PINC,&PIND};
/*****************************DIO_VoidInit***********************************/
extern void DIO_VoidInit(void)
{
  92:	df 93       	push	r29
  94:	cf 93       	push	r28
  96:	00 d0       	rcall	.+0      	; 0x98 <DIO_VoidInit+0x6>
  98:	00 d0       	rcall	.+0      	; 0x9a <DIO_VoidInit+0x8>
  9a:	cd b7       	in	r28, 0x3d	; 61
  9c:	de b7       	in	r29, 0x3e	; 62
	DDRA=DIO_u8PORTADIR;//ELY ANA BSHAER 3LEH 5LEH BL2IMH DEH
  9e:	ea e3       	ldi	r30, 0x3A	; 58
  a0:	f0 e0       	ldi	r31, 0x00	; 0
  a2:	8f ef       	ldi	r24, 0xFF	; 255
  a4:	80 83       	st	Z, r24
	DDRB=DIO_u8PORTBDIR;
  a6:	e7 e3       	ldi	r30, 0x37	; 55
  a8:	f0 e0       	ldi	r31, 0x00	; 0
  aa:	8f ef       	ldi	r24, 0xFF	; 255
  ac:	80 83       	st	Z, r24
	DDRC=DIO_u8PORTCDIR;
  ae:	e4 e3       	ldi	r30, 0x34	; 52
  b0:	f0 e0       	ldi	r31, 0x00	; 0
  b2:	8f ef       	ldi	r24, 0xFF	; 255
  b4:	80 83       	st	Z, r24
	DDRD=DIO_u8PORTDDIR;
  b6:	e1 e3       	ldi	r30, 0x31	; 49
  b8:	f0 e0       	ldi	r31, 0x00	; 0
  ba:	8f ef       	ldi	r24, 0xFF	; 255
  bc:	80 83       	st	Z, r24

	/*Comment!:karnouf map  */
	PORTA=(DIO_u8PORTAVAL & DIO_u8PORTADIR ) | (PORTA & (~DIO_u8PORTADIR));
  be:	eb e3       	ldi	r30, 0x3B	; 59
  c0:	f0 e0       	ldi	r31, 0x00	; 0
  c2:	80 81       	ld	r24, Z
  c4:	eb e3       	ldi	r30, 0x3B	; 59
  c6:	f0 e0       	ldi	r31, 0x00	; 0
  c8:	10 82       	st	Z, r1
	PORTB=(DIO_u8PORTBVAL & DIO_u8PORTBDIR ) | (PORTB & (~DIO_u8PORTBDIR));
  ca:	e8 e3       	ldi	r30, 0x38	; 56
  cc:	f0 e0       	ldi	r31, 0x00	; 0
  ce:	80 81       	ld	r24, Z
  d0:	e8 e3       	ldi	r30, 0x38	; 56
  d2:	f0 e0       	ldi	r31, 0x00	; 0
  d4:	10 82       	st	Z, r1
	PORTC=(DIO_u8PORTCVAL & DIO_u8PORTCDIR ) | (PORTC & (~DIO_u8PORTCDIR));
  d6:	e5 e3       	ldi	r30, 0x35	; 53
  d8:	f0 e0       	ldi	r31, 0x00	; 0
  da:	80 81       	ld	r24, Z
  dc:	e5 e3       	ldi	r30, 0x35	; 53
  de:	f0 e0       	ldi	r31, 0x00	; 0
  e0:	10 82       	st	Z, r1
	PORTD=(DIO_u8PORTDVAL & DIO_u8PORTDDIR ) | (PORTD & (~DIO_u8PORTDDIR));
  e2:	e2 e3       	ldi	r30, 0x32	; 50
  e4:	f0 e0       	ldi	r31, 0x00	; 0
  e6:	80 81       	ld	r24, Z
  e8:	e2 e3       	ldi	r30, 0x32	; 50
  ea:	f0 e0       	ldi	r31, 0x00	; 0
  ec:	10 82       	st	Z, r1

}
  ee:	0f 90       	pop	r0
  f0:	0f 90       	pop	r0
  f2:	0f 90       	pop	r0
  f4:	0f 90       	pop	r0
  f6:	cf 91       	pop	r28
  f8:	df 91       	pop	r29
  fa:	08 95       	ret

000000fc <DIO_u8ReadPinVal>:
/*****************************DIO_u8ReadPinVal***********************************/

extern u8 DIO_u8ReadPinVal(u8 Copy_u8PinIdx,u8* Copy_u8PtrToVal )
{
  fc:	df 93       	push	r29
  fe:	cf 93       	push	r28
 100:	00 d0       	rcall	.+0      	; 0x102 <DIO_u8ReadPinVal+0x6>
 102:	00 d0       	rcall	.+0      	; 0x104 <DIO_u8ReadPinVal+0x8>
 104:	00 d0       	rcall	.+0      	; 0x106 <DIO_u8ReadPinVal+0xa>
 106:	cd b7       	in	r28, 0x3d	; 61
 108:	de b7       	in	r29, 0x3e	; 62
 10a:	8c 83       	std	Y+4, r24	; 0x04
 10c:	7e 83       	std	Y+6, r23	; 0x06
 10e:	6d 83       	std	Y+5, r22	; 0x05
	u8 Local_u8Status,Local_u8Port,Local_u8Pin;
	if(Copy_u8PinIdx < DIO_u8NumberAllPins)
 110:	8c 81       	ldd	r24, Y+4	; 0x04
 112:	80 32       	cpi	r24, 0x20	; 32
 114:	98 f5       	brcc	.+102    	; 0x17c <DIO_u8ReadPinVal+0x80>
	{
		Local_u8Port=Copy_u8PinIdx / DIO_u8NumberOfPin;
 116:	8c 81       	ldd	r24, Y+4	; 0x04
 118:	86 95       	lsr	r24
 11a:	86 95       	lsr	r24
 11c:	86 95       	lsr	r24
 11e:	8a 83       	std	Y+2, r24	; 0x02
		Local_u8Pin= Copy_u8PinIdx % DIO_u8NumberOfPin;
 120:	8c 81       	ldd	r24, Y+4	; 0x04
 122:	87 70       	andi	r24, 0x07	; 7
 124:	89 83       	std	Y+1, r24	; 0x01
		*Copy_u8PtrToVal=Get_Bit(*DIO_u8ArrPIN[Local_u8Port],Local_u8Pin);
 126:	8a 81       	ldd	r24, Y+2	; 0x02
 128:	88 2f       	mov	r24, r24
 12a:	90 e0       	ldi	r25, 0x00	; 0
 12c:	88 0f       	add	r24, r24
 12e:	99 1f       	adc	r25, r25
 130:	fc 01       	movw	r30, r24
 132:	ed 56       	subi	r30, 0x6D	; 109
 134:	ff 4f       	sbci	r31, 0xFF	; 255
 136:	01 90       	ld	r0, Z+
 138:	f0 81       	ld	r31, Z
 13a:	e0 2d       	mov	r30, r0
 13c:	80 81       	ld	r24, Z
 13e:	48 2f       	mov	r20, r24
 140:	50 e0       	ldi	r21, 0x00	; 0
 142:	89 81       	ldd	r24, Y+1	; 0x01
 144:	28 2f       	mov	r18, r24
 146:	30 e0       	ldi	r19, 0x00	; 0
 148:	81 e0       	ldi	r24, 0x01	; 1
 14a:	90 e0       	ldi	r25, 0x00	; 0
 14c:	02 c0       	rjmp	.+4      	; 0x152 <DIO_u8ReadPinVal+0x56>
 14e:	88 0f       	add	r24, r24
 150:	99 1f       	adc	r25, r25
 152:	2a 95       	dec	r18
 154:	e2 f7       	brpl	.-8      	; 0x14e <DIO_u8ReadPinVal+0x52>
 156:	9a 01       	movw	r18, r20
 158:	28 23       	and	r18, r24
 15a:	39 23       	and	r19, r25
 15c:	89 81       	ldd	r24, Y+1	; 0x01
 15e:	88 2f       	mov	r24, r24
 160:	90 e0       	ldi	r25, 0x00	; 0
 162:	a9 01       	movw	r20, r18
 164:	02 c0       	rjmp	.+4      	; 0x16a <DIO_u8ReadPinVal+0x6e>
 166:	55 95       	asr	r21
 168:	47 95       	ror	r20
 16a:	8a 95       	dec	r24
 16c:	e2 f7       	brpl	.-8      	; 0x166 <DIO_u8ReadPinVal+0x6a>
 16e:	ca 01       	movw	r24, r20
 170:	ed 81       	ldd	r30, Y+5	; 0x05
 172:	fe 81       	ldd	r31, Y+6	; 0x06
 174:	80 83       	st	Z, r24
		Local_u8Status=Ok;
 176:	81 e0       	ldi	r24, 0x01	; 1
 178:	8b 83       	std	Y+3, r24	; 0x03
 17a:	01 c0       	rjmp	.+2      	; 0x17e <DIO_u8ReadPinVal+0x82>
	}
	else
	{
		Local_u8Status=Error;
 17c:	1b 82       	std	Y+3, r1	; 0x03
	}
	return Local_u8Status;
 17e:	8b 81       	ldd	r24, Y+3	; 0x03
}
 180:	26 96       	adiw	r28, 0x06	; 6
 182:	0f b6       	in	r0, 0x3f	; 63
 184:	f8 94       	cli
 186:	de bf       	out	0x3e, r29	; 62
 188:	0f be       	out	0x3f, r0	; 63
 18a:	cd bf       	out	0x3d, r28	; 61
 18c:	cf 91       	pop	r28
 18e:	df 91       	pop	r29
 190:	08 95       	ret

00000192 <DIO_u8WritePinVal>:
/*****************************DIO_u8WritePinVal***********************************/
extern u8 DIO_u8WritePinVal(u8 Copy_u8PinIdx,u8 Copy_u8PinToVal )
{
 192:	df 93       	push	r29
 194:	cf 93       	push	r28
 196:	00 d0       	rcall	.+0      	; 0x198 <DIO_u8WritePinVal+0x6>
 198:	00 d0       	rcall	.+0      	; 0x19a <DIO_u8WritePinVal+0x8>
 19a:	0f 92       	push	r0
 19c:	cd b7       	in	r28, 0x3d	; 61
 19e:	de b7       	in	r29, 0x3e	; 62
 1a0:	8c 83       	std	Y+4, r24	; 0x04
 1a2:	6d 83       	std	Y+5, r22	; 0x05
		u8 Local_u8Status,Local_u8Port,Local_u8Pin;
		if(Copy_u8PinIdx < DIO_u8NumberAllPins)
 1a4:	8c 81       	ldd	r24, Y+4	; 0x04
 1a6:	80 32       	cpi	r24, 0x20	; 32
 1a8:	08 f0       	brcs	.+2      	; 0x1ac <DIO_u8WritePinVal+0x1a>
 1aa:	58 c0       	rjmp	.+176    	; 0x25c <DIO_u8WritePinVal+0xca>
		{
			Local_u8Port=Copy_u8PinIdx / DIO_u8NumberOfPin;
 1ac:	8c 81       	ldd	r24, Y+4	; 0x04
 1ae:	86 95       	lsr	r24
 1b0:	86 95       	lsr	r24
 1b2:	86 95       	lsr	r24
 1b4:	8a 83       	std	Y+2, r24	; 0x02
			Local_u8Pin= Copy_u8PinIdx % DIO_u8NumberOfPin;
 1b6:	8c 81       	ldd	r24, Y+4	; 0x04
 1b8:	87 70       	andi	r24, 0x07	; 7
 1ba:	89 83       	std	Y+1, r24	; 0x01
			if(Copy_u8PinToVal==DIO_u8LOW)
 1bc:	8d 81       	ldd	r24, Y+5	; 0x05
 1be:	88 23       	and	r24, r24
 1c0:	31 f5       	brne	.+76     	; 0x20e <DIO_u8WritePinVal+0x7c>
			{
				Clr_Bit(*DIO_u8ArrPORT[Local_u8Port],Local_u8Pin);
 1c2:	8a 81       	ldd	r24, Y+2	; 0x02
 1c4:	88 2f       	mov	r24, r24
 1c6:	90 e0       	ldi	r25, 0x00	; 0
 1c8:	88 0f       	add	r24, r24
 1ca:	99 1f       	adc	r25, r25
 1cc:	fc 01       	movw	r30, r24
 1ce:	ed 57       	subi	r30, 0x7D	; 125
 1d0:	ff 4f       	sbci	r31, 0xFF	; 255
 1d2:	a0 81       	ld	r26, Z
 1d4:	b1 81       	ldd	r27, Z+1	; 0x01
 1d6:	8a 81       	ldd	r24, Y+2	; 0x02
 1d8:	88 2f       	mov	r24, r24
 1da:	90 e0       	ldi	r25, 0x00	; 0
 1dc:	88 0f       	add	r24, r24
 1de:	99 1f       	adc	r25, r25
 1e0:	fc 01       	movw	r30, r24
 1e2:	ed 57       	subi	r30, 0x7D	; 125
 1e4:	ff 4f       	sbci	r31, 0xFF	; 255
 1e6:	01 90       	ld	r0, Z+
 1e8:	f0 81       	ld	r31, Z
 1ea:	e0 2d       	mov	r30, r0
 1ec:	80 81       	ld	r24, Z
 1ee:	48 2f       	mov	r20, r24
 1f0:	89 81       	ldd	r24, Y+1	; 0x01
 1f2:	28 2f       	mov	r18, r24
 1f4:	30 e0       	ldi	r19, 0x00	; 0
 1f6:	81 e0       	ldi	r24, 0x01	; 1
 1f8:	90 e0       	ldi	r25, 0x00	; 0
 1fa:	02 2e       	mov	r0, r18
 1fc:	02 c0       	rjmp	.+4      	; 0x202 <DIO_u8WritePinVal+0x70>
 1fe:	88 0f       	add	r24, r24
 200:	99 1f       	adc	r25, r25
 202:	0a 94       	dec	r0
 204:	e2 f7       	brpl	.-8      	; 0x1fe <DIO_u8WritePinVal+0x6c>
 206:	80 95       	com	r24
 208:	84 23       	and	r24, r20
 20a:	8c 93       	st	X, r24
 20c:	24 c0       	rjmp	.+72     	; 0x256 <DIO_u8WritePinVal+0xc4>
			}
			else
			{
				Set_Bit(*DIO_u8ArrPORT[Local_u8Port],Local_u8Pin);
 20e:	8a 81       	ldd	r24, Y+2	; 0x02
 210:	88 2f       	mov	r24, r24
 212:	90 e0       	ldi	r25, 0x00	; 0
 214:	88 0f       	add	r24, r24
 216:	99 1f       	adc	r25, r25
 218:	fc 01       	movw	r30, r24
 21a:	ed 57       	subi	r30, 0x7D	; 125
 21c:	ff 4f       	sbci	r31, 0xFF	; 255
 21e:	a0 81       	ld	r26, Z
 220:	b1 81       	ldd	r27, Z+1	; 0x01
 222:	8a 81       	ldd	r24, Y+2	; 0x02
 224:	88 2f       	mov	r24, r24
 226:	90 e0       	ldi	r25, 0x00	; 0
 228:	88 0f       	add	r24, r24
 22a:	99 1f       	adc	r25, r25
 22c:	fc 01       	movw	r30, r24
 22e:	ed 57       	subi	r30, 0x7D	; 125
 230:	ff 4f       	sbci	r31, 0xFF	; 255
 232:	01 90       	ld	r0, Z+
 234:	f0 81       	ld	r31, Z
 236:	e0 2d       	mov	r30, r0
 238:	80 81       	ld	r24, Z
 23a:	48 2f       	mov	r20, r24
 23c:	89 81       	ldd	r24, Y+1	; 0x01
 23e:	28 2f       	mov	r18, r24
 240:	30 e0       	ldi	r19, 0x00	; 0
 242:	81 e0       	ldi	r24, 0x01	; 1
 244:	90 e0       	ldi	r25, 0x00	; 0
 246:	02 2e       	mov	r0, r18
 248:	02 c0       	rjmp	.+4      	; 0x24e <DIO_u8WritePinVal+0xbc>
 24a:	88 0f       	add	r24, r24
 24c:	99 1f       	adc	r25, r25
 24e:	0a 94       	dec	r0
 250:	e2 f7       	brpl	.-8      	; 0x24a <DIO_u8WritePinVal+0xb8>
 252:	84 2b       	or	r24, r20
 254:	8c 93       	st	X, r24
			}
			Local_u8Status=Ok;
 256:	81 e0       	ldi	r24, 0x01	; 1
 258:	8b 83       	std	Y+3, r24	; 0x03
 25a:	01 c0       	rjmp	.+2      	; 0x25e <DIO_u8WritePinVal+0xcc>
		}
		else
		{
			Local_u8Status=Error;
 25c:	1b 82       	std	Y+3, r1	; 0x03
		}
		return Local_u8Status;
 25e:	8b 81       	ldd	r24, Y+3	; 0x03

}
 260:	0f 90       	pop	r0
 262:	0f 90       	pop	r0
 264:	0f 90       	pop	r0
 266:	0f 90       	pop	r0
 268:	0f 90       	pop	r0
 26a:	cf 91       	pop	r28
 26c:	df 91       	pop	r29
 26e:	08 95       	ret

00000270 <DIO_u8ReadPortVal>:
/*****************************DIO_u8ReadPortVal***********************************/

extern u8 DIO_u8ReadPortVal(u8 Copy_u8PortIdx,u8* Copy_u8PtrToVal )
{
 270:	df 93       	push	r29
 272:	cf 93       	push	r28
 274:	00 d0       	rcall	.+0      	; 0x276 <DIO_u8ReadPortVal+0x6>
 276:	00 d0       	rcall	.+0      	; 0x278 <DIO_u8ReadPortVal+0x8>
 278:	cd b7       	in	r28, 0x3d	; 61
 27a:	de b7       	in	r29, 0x3e	; 62
 27c:	8a 83       	std	Y+2, r24	; 0x02
 27e:	7c 83       	std	Y+4, r23	; 0x04
 280:	6b 83       	std	Y+3, r22	; 0x03
	u8 Local_u8Status;

	if(Copy_u8PortIdx < DIO_u8NumberOfPort)
 282:	8a 81       	ldd	r24, Y+2	; 0x02
 284:	84 30       	cpi	r24, 0x04	; 4
 286:	90 f4       	brcc	.+36     	; 0x2ac <DIO_u8ReadPortVal+0x3c>
	{
		*Copy_u8PtrToVal=*DIO_u8ArrPIN[Copy_u8PortIdx];
 288:	8a 81       	ldd	r24, Y+2	; 0x02
 28a:	88 2f       	mov	r24, r24
 28c:	90 e0       	ldi	r25, 0x00	; 0
 28e:	88 0f       	add	r24, r24
 290:	99 1f       	adc	r25, r25
 292:	fc 01       	movw	r30, r24
 294:	ed 56       	subi	r30, 0x6D	; 109
 296:	ff 4f       	sbci	r31, 0xFF	; 255
 298:	01 90       	ld	r0, Z+
 29a:	f0 81       	ld	r31, Z
 29c:	e0 2d       	mov	r30, r0
 29e:	80 81       	ld	r24, Z
 2a0:	eb 81       	ldd	r30, Y+3	; 0x03
 2a2:	fc 81       	ldd	r31, Y+4	; 0x04
 2a4:	80 83       	st	Z, r24
		Local_u8Status=Ok;
 2a6:	81 e0       	ldi	r24, 0x01	; 1
 2a8:	89 83       	std	Y+1, r24	; 0x01
 2aa:	01 c0       	rjmp	.+2      	; 0x2ae <DIO_u8ReadPortVal+0x3e>
	}
	else
	{
		Local_u8Status=Error;
 2ac:	19 82       	std	Y+1, r1	; 0x01
	}
	return Local_u8Status;
 2ae:	89 81       	ldd	r24, Y+1	; 0x01
}
 2b0:	0f 90       	pop	r0
 2b2:	0f 90       	pop	r0
 2b4:	0f 90       	pop	r0
 2b6:	0f 90       	pop	r0
 2b8:	cf 91       	pop	r28
 2ba:	df 91       	pop	r29
 2bc:	08 95       	ret

000002be <DIO_u8WritePortVal>:
/*****************************DIO_u8WritePortVal***********************************/

extern u8 DIO_u8WritePortVal(u8 Copy_u8PortIdx,u8* Copy_u8PtrToVal )
{
 2be:	df 93       	push	r29
 2c0:	cf 93       	push	r28
 2c2:	00 d0       	rcall	.+0      	; 0x2c4 <DIO_u8WritePortVal+0x6>
 2c4:	00 d0       	rcall	.+0      	; 0x2c6 <DIO_u8WritePortVal+0x8>
 2c6:	cd b7       	in	r28, 0x3d	; 61
 2c8:	de b7       	in	r29, 0x3e	; 62
 2ca:	8a 83       	std	Y+2, r24	; 0x02
 2cc:	7c 83       	std	Y+4, r23	; 0x04
 2ce:	6b 83       	std	Y+3, r22	; 0x03
		u8 Local_u8Status;

		if(Copy_u8PortIdx < DIO_u8NumberOfPort)
 2d0:	8a 81       	ldd	r24, Y+2	; 0x02
 2d2:	84 30       	cpi	r24, 0x04	; 4
 2d4:	88 f4       	brcc	.+34     	; 0x2f8 <DIO_u8WritePortVal+0x3a>
		{
			*DIO_u8ArrPORT[Copy_u8PortIdx]=*Copy_u8PtrToVal;
 2d6:	8a 81       	ldd	r24, Y+2	; 0x02
 2d8:	88 2f       	mov	r24, r24
 2da:	90 e0       	ldi	r25, 0x00	; 0
 2dc:	88 0f       	add	r24, r24
 2de:	99 1f       	adc	r25, r25
 2e0:	fc 01       	movw	r30, r24
 2e2:	ed 57       	subi	r30, 0x7D	; 125
 2e4:	ff 4f       	sbci	r31, 0xFF	; 255
 2e6:	a0 81       	ld	r26, Z
 2e8:	b1 81       	ldd	r27, Z+1	; 0x01
 2ea:	eb 81       	ldd	r30, Y+3	; 0x03
 2ec:	fc 81       	ldd	r31, Y+4	; 0x04
 2ee:	80 81       	ld	r24, Z
 2f0:	8c 93       	st	X, r24
			Local_u8Status=Ok;
 2f2:	81 e0       	ldi	r24, 0x01	; 1
 2f4:	89 83       	std	Y+1, r24	; 0x01
 2f6:	01 c0       	rjmp	.+2      	; 0x2fa <DIO_u8WritePortVal+0x3c>
		}
		else
		{
			Local_u8Status=Error;
 2f8:	19 82       	std	Y+1, r1	; 0x01
		}
		return Local_u8Status;
 2fa:	89 81       	ldd	r24, Y+1	; 0x01

}
 2fc:	0f 90       	pop	r0
 2fe:	0f 90       	pop	r0
 300:	0f 90       	pop	r0
 302:	0f 90       	pop	r0
 304:	cf 91       	pop	r28
 306:	df 91       	pop	r29
 308:	08 95       	ret

0000030a <DIO_u8WritePinDir>:
/*****************************DIO_u8ReadPortDir***********************************/
extern u8 DIO_u8WritePinDir(u8 Copy_u8PinIdx,u8 Copy_u8PinDir)
{
 30a:	df 93       	push	r29
 30c:	cf 93       	push	r28
 30e:	00 d0       	rcall	.+0      	; 0x310 <DIO_u8WritePinDir+0x6>
 310:	00 d0       	rcall	.+0      	; 0x312 <DIO_u8WritePinDir+0x8>
 312:	0f 92       	push	r0
 314:	cd b7       	in	r28, 0x3d	; 61
 316:	de b7       	in	r29, 0x3e	; 62
 318:	8c 83       	std	Y+4, r24	; 0x04
 31a:	6d 83       	std	Y+5, r22	; 0x05
			u8 Local_u8Status,Local_u8Port,Local_u8Pin;
			if(Copy_u8PinIdx < DIO_u8NumberAllPins)
 31c:	8c 81       	ldd	r24, Y+4	; 0x04
 31e:	80 32       	cpi	r24, 0x20	; 32
 320:	d8 f5       	brcc	.+118    	; 0x398 <DIO_u8WritePinDir+0x8e>
			{
				Local_u8Port=Copy_u8PinIdx / DIO_u8NumberOfPin;
 322:	8c 81       	ldd	r24, Y+4	; 0x04
 324:	86 95       	lsr	r24
 326:	86 95       	lsr	r24
 328:	86 95       	lsr	r24
 32a:	8a 83       	std	Y+2, r24	; 0x02
				Local_u8Pin= Copy_u8PinIdx % DIO_u8NumberOfPin;
 32c:	8c 81       	ldd	r24, Y+4	; 0x04
 32e:	87 70       	andi	r24, 0x07	; 7
 330:	89 83       	std	Y+1, r24	; 0x01
				Assign_Bit(*DIO_u8ArrDDR[Local_u8Port],Local_u8Pin,Copy_u8PinDir);
 332:	8a 81       	ldd	r24, Y+2	; 0x02
 334:	88 2f       	mov	r24, r24
 336:	90 e0       	ldi	r25, 0x00	; 0
 338:	88 0f       	add	r24, r24
 33a:	99 1f       	adc	r25, r25
 33c:	fc 01       	movw	r30, r24
 33e:	e5 57       	subi	r30, 0x75	; 117
 340:	ff 4f       	sbci	r31, 0xFF	; 255
 342:	a0 81       	ld	r26, Z
 344:	b1 81       	ldd	r27, Z+1	; 0x01
 346:	8a 81       	ldd	r24, Y+2	; 0x02
 348:	88 2f       	mov	r24, r24
 34a:	90 e0       	ldi	r25, 0x00	; 0
 34c:	88 0f       	add	r24, r24
 34e:	99 1f       	adc	r25, r25
 350:	fc 01       	movw	r30, r24
 352:	e5 57       	subi	r30, 0x75	; 117
 354:	ff 4f       	sbci	r31, 0xFF	; 255
 356:	01 90       	ld	r0, Z+
 358:	f0 81       	ld	r31, Z
 35a:	e0 2d       	mov	r30, r0
 35c:	80 81       	ld	r24, Z
 35e:	48 2f       	mov	r20, r24
 360:	89 81       	ldd	r24, Y+1	; 0x01
 362:	28 2f       	mov	r18, r24
 364:	30 e0       	ldi	r19, 0x00	; 0
 366:	81 e0       	ldi	r24, 0x01	; 1
 368:	90 e0       	ldi	r25, 0x00	; 0
 36a:	02 c0       	rjmp	.+4      	; 0x370 <DIO_u8WritePinDir+0x66>
 36c:	88 0f       	add	r24, r24
 36e:	99 1f       	adc	r25, r25
 370:	2a 95       	dec	r18
 372:	e2 f7       	brpl	.-8      	; 0x36c <DIO_u8WritePinDir+0x62>
 374:	80 95       	com	r24
 376:	48 23       	and	r20, r24
 378:	8d 81       	ldd	r24, Y+5	; 0x05
 37a:	28 2f       	mov	r18, r24
 37c:	30 e0       	ldi	r19, 0x00	; 0
 37e:	89 81       	ldd	r24, Y+1	; 0x01
 380:	88 2f       	mov	r24, r24
 382:	90 e0       	ldi	r25, 0x00	; 0
 384:	b9 01       	movw	r22, r18
 386:	02 c0       	rjmp	.+4      	; 0x38c <DIO_u8WritePinDir+0x82>
 388:	66 0f       	add	r22, r22
 38a:	77 1f       	adc	r23, r23
 38c:	8a 95       	dec	r24
 38e:	e2 f7       	brpl	.-8      	; 0x388 <DIO_u8WritePinDir+0x7e>
 390:	cb 01       	movw	r24, r22
 392:	84 2b       	or	r24, r20
 394:	8c 93       	st	X, r24
 396:	01 c0       	rjmp	.+2      	; 0x39a <DIO_u8WritePinDir+0x90>
			}
			else
			{
				Local_u8Status=Error;
 398:	1b 82       	std	Y+3, r1	; 0x03
			}
			return Local_u8Status;
 39a:	8b 81       	ldd	r24, Y+3	; 0x03
}
 39c:	0f 90       	pop	r0
 39e:	0f 90       	pop	r0
 3a0:	0f 90       	pop	r0
 3a2:	0f 90       	pop	r0
 3a4:	0f 90       	pop	r0
 3a6:	cf 91       	pop	r28
 3a8:	df 91       	pop	r29
 3aa:	08 95       	ret

000003ac <DIO_u8WritePortDir>:
/*****************************DIO_u8WritePortDir***********************************/

extern u8 DIO_u8WritePortDir(u8 Copy_u8PortIdx,u8 Copy_u8PortDir)
{
 3ac:	df 93       	push	r29
 3ae:	cf 93       	push	r28
 3b0:	00 d0       	rcall	.+0      	; 0x3b2 <DIO_u8WritePortDir+0x6>
 3b2:	0f 92       	push	r0
 3b4:	cd b7       	in	r28, 0x3d	; 61
 3b6:	de b7       	in	r29, 0x3e	; 62
 3b8:	8a 83       	std	Y+2, r24	; 0x02
 3ba:	6b 83       	std	Y+3, r22	; 0x03
				u8 Local_u8Status;//,Local_u8Port;
				if(Copy_u8PortIdx < DIO_u8NumberOfPort)
 3bc:	8a 81       	ldd	r24, Y+2	; 0x02
 3be:	84 30       	cpi	r24, 0x04	; 4
 3c0:	70 f4       	brcc	.+28     	; 0x3de <DIO_u8WritePortDir+0x32>
				{
					//Local_u8Port=Copy_u8PortIdx / DIO_u8NumberOfPin;
					Assign_Reg(*DIO_u8ArrDDR[Copy_u8PortIdx],Copy_u8PortDir);
 3c2:	8a 81       	ldd	r24, Y+2	; 0x02
 3c4:	88 2f       	mov	r24, r24
 3c6:	90 e0       	ldi	r25, 0x00	; 0
 3c8:	88 0f       	add	r24, r24
 3ca:	99 1f       	adc	r25, r25
 3cc:	fc 01       	movw	r30, r24
 3ce:	e5 57       	subi	r30, 0x75	; 117
 3d0:	ff 4f       	sbci	r31, 0xFF	; 255
 3d2:	01 90       	ld	r0, Z+
 3d4:	f0 81       	ld	r31, Z
 3d6:	e0 2d       	mov	r30, r0
 3d8:	8b 81       	ldd	r24, Y+3	; 0x03
 3da:	80 83       	st	Z, r24
 3dc:	01 c0       	rjmp	.+2      	; 0x3e0 <DIO_u8WritePortDir+0x34>
				}
				else
				{
					Local_u8Status=Error;
 3de:	19 82       	std	Y+1, r1	; 0x01
				}
				return Local_u8Status;
 3e0:	89 81       	ldd	r24, Y+1	; 0x01

}
 3e2:	0f 90       	pop	r0
 3e4:	0f 90       	pop	r0
 3e6:	0f 90       	pop	r0
 3e8:	cf 91       	pop	r28
 3ea:	df 91       	pop	r29
 3ec:	08 95       	ret

000003ee <DIO_u8ReadPinDir>:
/*****************************DIO_u8ReadPinDir***********************************/

extern u8 DIO_u8ReadPinDir(u8 Copy_u8PinIdx,u8* Copy_u8PinDir)
{
 3ee:	df 93       	push	r29
 3f0:	cf 93       	push	r28
 3f2:	00 d0       	rcall	.+0      	; 0x3f4 <DIO_u8ReadPinDir+0x6>
 3f4:	00 d0       	rcall	.+0      	; 0x3f6 <DIO_u8ReadPinDir+0x8>
 3f6:	00 d0       	rcall	.+0      	; 0x3f8 <DIO_u8ReadPinDir+0xa>
 3f8:	cd b7       	in	r28, 0x3d	; 61
 3fa:	de b7       	in	r29, 0x3e	; 62
 3fc:	8c 83       	std	Y+4, r24	; 0x04
 3fe:	7e 83       	std	Y+6, r23	; 0x06
 400:	6d 83       	std	Y+5, r22	; 0x05
				u8 Local_u8Status,Local_u8Port,Local_u8Pin;
				if(Copy_u8PinIdx < DIO_u8NumberAllPins)
 402:	8c 81       	ldd	r24, Y+4	; 0x04
 404:	80 32       	cpi	r24, 0x20	; 32
 406:	88 f5       	brcc	.+98     	; 0x46a <__stack+0xb>
				{
					Local_u8Port=Copy_u8PinIdx / DIO_u8NumberOfPin;
 408:	8c 81       	ldd	r24, Y+4	; 0x04
 40a:	86 95       	lsr	r24
 40c:	86 95       	lsr	r24
 40e:	86 95       	lsr	r24
 410:	8a 83       	std	Y+2, r24	; 0x02
					Local_u8Pin= Copy_u8PinIdx % DIO_u8NumberOfPin;
 412:	8c 81       	ldd	r24, Y+4	; 0x04
 414:	87 70       	andi	r24, 0x07	; 7
 416:	89 83       	std	Y+1, r24	; 0x01
					*Copy_u8PinDir=Get_Bit(*DIO_u8ArrDDR[Local_u8Port],Local_u8Port);
 418:	8a 81       	ldd	r24, Y+2	; 0x02
 41a:	88 2f       	mov	r24, r24
 41c:	90 e0       	ldi	r25, 0x00	; 0
 41e:	88 0f       	add	r24, r24
 420:	99 1f       	adc	r25, r25
 422:	fc 01       	movw	r30, r24
 424:	e5 57       	subi	r30, 0x75	; 117
 426:	ff 4f       	sbci	r31, 0xFF	; 255
 428:	01 90       	ld	r0, Z+
 42a:	f0 81       	ld	r31, Z
 42c:	e0 2d       	mov	r30, r0
 42e:	80 81       	ld	r24, Z
 430:	48 2f       	mov	r20, r24
 432:	50 e0       	ldi	r21, 0x00	; 0
 434:	8a 81       	ldd	r24, Y+2	; 0x02
 436:	28 2f       	mov	r18, r24
 438:	30 e0       	ldi	r19, 0x00	; 0
 43a:	81 e0       	ldi	r24, 0x01	; 1
 43c:	90 e0       	ldi	r25, 0x00	; 0
 43e:	02 c0       	rjmp	.+4      	; 0x444 <DIO_u8ReadPinDir+0x56>
 440:	88 0f       	add	r24, r24
 442:	99 1f       	adc	r25, r25
 444:	2a 95       	dec	r18
 446:	e2 f7       	brpl	.-8      	; 0x440 <DIO_u8ReadPinDir+0x52>
 448:	9a 01       	movw	r18, r20
 44a:	28 23       	and	r18, r24
 44c:	39 23       	and	r19, r25
 44e:	8a 81       	ldd	r24, Y+2	; 0x02
 450:	88 2f       	mov	r24, r24
 452:	90 e0       	ldi	r25, 0x00	; 0
 454:	a9 01       	movw	r20, r18
 456:	02 c0       	rjmp	.+4      	; 0x45c <DIO_u8ReadPinDir+0x6e>
 458:	55 95       	asr	r21
 45a:	47 95       	ror	r20
 45c:	8a 95       	dec	r24
 45e:	e2 f7       	brpl	.-8      	; 0x458 <DIO_u8ReadPinDir+0x6a>
 460:	ca 01       	movw	r24, r20
 462:	ed 81       	ldd	r30, Y+5	; 0x05
 464:	fe 81       	ldd	r31, Y+6	; 0x06
 466:	80 83       	st	Z, r24
 468:	01 c0       	rjmp	.+2      	; 0x46c <__stack+0xd>
				}
				else
				{
					Local_u8Status=Error;
 46a:	1b 82       	std	Y+3, r1	; 0x03
				}
				return Local_u8Status;
 46c:	8b 81       	ldd	r24, Y+3	; 0x03
}
 46e:	26 96       	adiw	r28, 0x06	; 6
 470:	0f b6       	in	r0, 0x3f	; 63
 472:	f8 94       	cli
 474:	de bf       	out	0x3e, r29	; 62
 476:	0f be       	out	0x3f, r0	; 63
 478:	cd bf       	out	0x3d, r28	; 61
 47a:	cf 91       	pop	r28
 47c:	df 91       	pop	r29
 47e:	08 95       	ret

00000480 <DIO_u8ReadPortDir>:
/*****************************DIO_u8ReadPortDir***********************************/

extern u8 DIO_u8ReadPortDir(u8 Copy_u8PortIdx,u8* Copy_u8PortDir)
{
 480:	df 93       	push	r29
 482:	cf 93       	push	r28
 484:	00 d0       	rcall	.+0      	; 0x486 <DIO_u8ReadPortDir+0x6>
 486:	00 d0       	rcall	.+0      	; 0x488 <DIO_u8ReadPortDir+0x8>
 488:	cd b7       	in	r28, 0x3d	; 61
 48a:	de b7       	in	r29, 0x3e	; 62
 48c:	8a 83       	std	Y+2, r24	; 0x02
 48e:	7c 83       	std	Y+4, r23	; 0x04
 490:	6b 83       	std	Y+3, r22	; 0x03
		u8 Local_u8Status;

		if(Copy_u8PortIdx < DIO_u8NumberOfPort)
 492:	8a 81       	ldd	r24, Y+2	; 0x02
 494:	84 30       	cpi	r24, 0x04	; 4
 496:	90 f4       	brcc	.+36     	; 0x4bc <DIO_u8ReadPortDir+0x3c>
		{
			*Copy_u8PortDir=*DIO_u8ArrDDR[Copy_u8PortIdx];
 498:	8a 81       	ldd	r24, Y+2	; 0x02
 49a:	88 2f       	mov	r24, r24
 49c:	90 e0       	ldi	r25, 0x00	; 0
 49e:	88 0f       	add	r24, r24
 4a0:	99 1f       	adc	r25, r25
 4a2:	fc 01       	movw	r30, r24
 4a4:	e5 57       	subi	r30, 0x75	; 117
 4a6:	ff 4f       	sbci	r31, 0xFF	; 255
 4a8:	01 90       	ld	r0, Z+
 4aa:	f0 81       	ld	r31, Z
 4ac:	e0 2d       	mov	r30, r0
 4ae:	80 81       	ld	r24, Z
 4b0:	eb 81       	ldd	r30, Y+3	; 0x03
 4b2:	fc 81       	ldd	r31, Y+4	; 0x04
 4b4:	80 83       	st	Z, r24
			Local_u8Status=Ok;
 4b6:	81 e0       	ldi	r24, 0x01	; 1
 4b8:	89 83       	std	Y+1, r24	; 0x01
 4ba:	01 c0       	rjmp	.+2      	; 0x4be <DIO_u8ReadPortDir+0x3e>
		}
		else
		{
			Local_u8Status=Error;
 4bc:	19 82       	std	Y+1, r1	; 0x01
		}
		return Local_u8Status;
 4be:	89 81       	ldd	r24, Y+1	; 0x01

}
 4c0:	0f 90       	pop	r0
 4c2:	0f 90       	pop	r0
 4c4:	0f 90       	pop	r0
 4c6:	0f 90       	pop	r0
 4c8:	cf 91       	pop	r28
 4ca:	df 91       	pop	r29
 4cc:	08 95       	ret

000004ce <main>:
#include "../../../MCAL/DIO/DIO_CODE/DIO_interface.h"
#include "../LCD_CODE/LCD_Interface.h"
#include"../../../Shared_Libraries/delay.h"

int main(void)
    {
 4ce:	df 93       	push	r29
 4d0:	cf 93       	push	r28
 4d2:	cd b7       	in	r28, 0x3d	; 61
 4d4:	de b7       	in	r29, 0x3e	; 62
 4d6:	64 97       	sbiw	r28, 0x14	; 20
 4d8:	0f b6       	in	r0, 0x3f	; 63
 4da:	f8 94       	cli
 4dc:	de bf       	out	0x3e, r29	; 62
 4de:	0f be       	out	0x3f, r0	; 63
 4e0:	cd bf       	out	0x3d, r28	; 61

    DIO_VoidInit();
 4e2:	0e 94 49 00 	call	0x92	; 0x92 <DIO_VoidInit>
    LCD_VoidInit();
 4e6:	0e 94 f9 04 	call	0x9f2	; 0x9f2 <LCD_VoidInit>

    while (1)
	{

	LCD_VoidString((u8*)"Nadine");
 4ea:	80 e6       	ldi	r24, 0x60	; 96
 4ec:	90 e0       	ldi	r25, 0x00	; 0
 4ee:	0e 94 8c 05 	call	0xb18	; 0xb18 <LCD_VoidString>
	Delay_ms_Max1s(500);
 4f2:	84 e2       	ldi	r24, 0x24	; 36
 4f4:	94 ef       	ldi	r25, 0xF4	; 244
 4f6:	a0 e0       	ldi	r26, 0x00	; 0
 4f8:	b0 e0       	ldi	r27, 0x00	; 0
 4fa:	89 8b       	std	Y+17, r24	; 0x11
 4fc:	9a 8b       	std	Y+18, r25	; 0x12
 4fe:	ab 8b       	std	Y+19, r26	; 0x13
 500:	bc 8b       	std	Y+20, r27	; 0x14
 502:	0c c0       	rjmp	.+24     	; 0x51c <main+0x4e>
 504:	00 00       	nop
 506:	89 89       	ldd	r24, Y+17	; 0x11
 508:	9a 89       	ldd	r25, Y+18	; 0x12
 50a:	ab 89       	ldd	r26, Y+19	; 0x13
 50c:	bc 89       	ldd	r27, Y+20	; 0x14
 50e:	01 97       	sbiw	r24, 0x01	; 1
 510:	a1 09       	sbc	r26, r1
 512:	b1 09       	sbc	r27, r1
 514:	89 8b       	std	Y+17, r24	; 0x11
 516:	9a 8b       	std	Y+18, r25	; 0x12
 518:	ab 8b       	std	Y+19, r26	; 0x13
 51a:	bc 8b       	std	Y+20, r27	; 0x14
 51c:	89 89       	ldd	r24, Y+17	; 0x11
 51e:	9a 89       	ldd	r25, Y+18	; 0x12
 520:	ab 89       	ldd	r26, Y+19	; 0x13
 522:	bc 89       	ldd	r27, Y+20	; 0x14
 524:	00 97       	sbiw	r24, 0x00	; 0
 526:	a1 05       	cpc	r26, r1
 528:	b1 05       	cpc	r27, r1
 52a:	61 f7       	brne	.-40     	; 0x504 <main+0x36>
	LCD_VoidClearScreen();
 52c:	0e 94 15 06 	call	0xc2a	; 0xc2a <LCD_VoidClearScreen>
	LCD_VoidString((u8*) "Adel");
 530:	87 e6       	ldi	r24, 0x67	; 103
 532:	90 e0       	ldi	r25, 0x00	; 0
 534:	0e 94 8c 05 	call	0xb18	; 0xb18 <LCD_VoidString>
	Delay_ms_Max1s(500);
 538:	84 e2       	ldi	r24, 0x24	; 36
 53a:	94 ef       	ldi	r25, 0xF4	; 244
 53c:	a0 e0       	ldi	r26, 0x00	; 0
 53e:	b0 e0       	ldi	r27, 0x00	; 0
 540:	8d 87       	std	Y+13, r24	; 0x0d
 542:	9e 87       	std	Y+14, r25	; 0x0e
 544:	af 87       	std	Y+15, r26	; 0x0f
 546:	b8 8b       	std	Y+16, r27	; 0x10
 548:	0c c0       	rjmp	.+24     	; 0x562 <main+0x94>
 54a:	00 00       	nop
 54c:	8d 85       	ldd	r24, Y+13	; 0x0d
 54e:	9e 85       	ldd	r25, Y+14	; 0x0e
 550:	af 85       	ldd	r26, Y+15	; 0x0f
 552:	b8 89       	ldd	r27, Y+16	; 0x10
 554:	01 97       	sbiw	r24, 0x01	; 1
 556:	a1 09       	sbc	r26, r1
 558:	b1 09       	sbc	r27, r1
 55a:	8d 87       	std	Y+13, r24	; 0x0d
 55c:	9e 87       	std	Y+14, r25	; 0x0e
 55e:	af 87       	std	Y+15, r26	; 0x0f
 560:	b8 8b       	std	Y+16, r27	; 0x10
 562:	8d 85       	ldd	r24, Y+13	; 0x0d
 564:	9e 85       	ldd	r25, Y+14	; 0x0e
 566:	af 85       	ldd	r26, Y+15	; 0x0f
 568:	b8 89       	ldd	r27, Y+16	; 0x10
 56a:	00 97       	sbiw	r24, 0x00	; 0
 56c:	a1 05       	cpc	r26, r1
 56e:	b1 05       	cpc	r27, r1
 570:	61 f7       	brne	.-40     	; 0x54a <main+0x7c>
	LCD_VoidClearScreen();
 572:	0e 94 15 06 	call	0xc2a	; 0xc2a <LCD_VoidClearScreen>
	LCD_VoidString((u8*) "Menshawy");
 576:	8c e6       	ldi	r24, 0x6C	; 108
 578:	90 e0       	ldi	r25, 0x00	; 0
 57a:	0e 94 8c 05 	call	0xb18	; 0xb18 <LCD_VoidString>
	Delay_ms_Max1s(500);
 57e:	84 e2       	ldi	r24, 0x24	; 36
 580:	94 ef       	ldi	r25, 0xF4	; 244
 582:	a0 e0       	ldi	r26, 0x00	; 0
 584:	b0 e0       	ldi	r27, 0x00	; 0
 586:	89 87       	std	Y+9, r24	; 0x09
 588:	9a 87       	std	Y+10, r25	; 0x0a
 58a:	ab 87       	std	Y+11, r26	; 0x0b
 58c:	bc 87       	std	Y+12, r27	; 0x0c
 58e:	0c c0       	rjmp	.+24     	; 0x5a8 <main+0xda>
 590:	00 00       	nop
 592:	89 85       	ldd	r24, Y+9	; 0x09
 594:	9a 85       	ldd	r25, Y+10	; 0x0a
 596:	ab 85       	ldd	r26, Y+11	; 0x0b
 598:	bc 85       	ldd	r27, Y+12	; 0x0c
 59a:	01 97       	sbiw	r24, 0x01	; 1
 59c:	a1 09       	sbc	r26, r1
 59e:	b1 09       	sbc	r27, r1
 5a0:	89 87       	std	Y+9, r24	; 0x09
 5a2:	9a 87       	std	Y+10, r25	; 0x0a
 5a4:	ab 87       	std	Y+11, r26	; 0x0b
 5a6:	bc 87       	std	Y+12, r27	; 0x0c
 5a8:	89 85       	ldd	r24, Y+9	; 0x09
 5aa:	9a 85       	ldd	r25, Y+10	; 0x0a
 5ac:	ab 85       	ldd	r26, Y+11	; 0x0b
 5ae:	bc 85       	ldd	r27, Y+12	; 0x0c
 5b0:	00 97       	sbiw	r24, 0x00	; 0
 5b2:	a1 05       	cpc	r26, r1
 5b4:	b1 05       	cpc	r27, r1
 5b6:	61 f7       	brne	.-40     	; 0x590 <main+0xc2>
	LCD_VoidClearScreen();
 5b8:	0e 94 15 06 	call	0xc2a	; 0xc2a <LCD_VoidClearScreen>
	LCD_VoidString((u8*) "youssef");
 5bc:	85 e7       	ldi	r24, 0x75	; 117
 5be:	90 e0       	ldi	r25, 0x00	; 0
 5c0:	0e 94 8c 05 	call	0xb18	; 0xb18 <LCD_VoidString>
	Delay_ms_Max1s(500);
 5c4:	84 e2       	ldi	r24, 0x24	; 36
 5c6:	94 ef       	ldi	r25, 0xF4	; 244
 5c8:	a0 e0       	ldi	r26, 0x00	; 0
 5ca:	b0 e0       	ldi	r27, 0x00	; 0
 5cc:	8d 83       	std	Y+5, r24	; 0x05
 5ce:	9e 83       	std	Y+6, r25	; 0x06
 5d0:	af 83       	std	Y+7, r26	; 0x07
 5d2:	b8 87       	std	Y+8, r27	; 0x08
 5d4:	0c c0       	rjmp	.+24     	; 0x5ee <main+0x120>
 5d6:	00 00       	nop
 5d8:	8d 81       	ldd	r24, Y+5	; 0x05
 5da:	9e 81       	ldd	r25, Y+6	; 0x06
 5dc:	af 81       	ldd	r26, Y+7	; 0x07
 5de:	b8 85       	ldd	r27, Y+8	; 0x08
 5e0:	01 97       	sbiw	r24, 0x01	; 1
 5e2:	a1 09       	sbc	r26, r1
 5e4:	b1 09       	sbc	r27, r1
 5e6:	8d 83       	std	Y+5, r24	; 0x05
 5e8:	9e 83       	std	Y+6, r25	; 0x06
 5ea:	af 83       	std	Y+7, r26	; 0x07
 5ec:	b8 87       	std	Y+8, r27	; 0x08
 5ee:	8d 81       	ldd	r24, Y+5	; 0x05
 5f0:	9e 81       	ldd	r25, Y+6	; 0x06
 5f2:	af 81       	ldd	r26, Y+7	; 0x07
 5f4:	b8 85       	ldd	r27, Y+8	; 0x08
 5f6:	00 97       	sbiw	r24, 0x00	; 0
 5f8:	a1 05       	cpc	r26, r1
 5fa:	b1 05       	cpc	r27, r1
 5fc:	61 f7       	brne	.-40     	; 0x5d6 <main+0x108>
	LCD_VoidClearScreen();
 5fe:	0e 94 15 06 	call	0xc2a	; 0xc2a <LCD_VoidClearScreen>
	LCD_VoidString((u8*) "Marim");
 602:	8d e7       	ldi	r24, 0x7D	; 125
 604:	90 e0       	ldi	r25, 0x00	; 0
 606:	0e 94 8c 05 	call	0xb18	; 0xb18 <LCD_VoidString>
	Delay_ms_Max1s(500);
 60a:	84 e2       	ldi	r24, 0x24	; 36
 60c:	94 ef       	ldi	r25, 0xF4	; 244
 60e:	a0 e0       	ldi	r26, 0x00	; 0
 610:	b0 e0       	ldi	r27, 0x00	; 0
 612:	89 83       	std	Y+1, r24	; 0x01
 614:	9a 83       	std	Y+2, r25	; 0x02
 616:	ab 83       	std	Y+3, r26	; 0x03
 618:	bc 83       	std	Y+4, r27	; 0x04
 61a:	0c c0       	rjmp	.+24     	; 0x634 <main+0x166>
 61c:	00 00       	nop
 61e:	89 81       	ldd	r24, Y+1	; 0x01
 620:	9a 81       	ldd	r25, Y+2	; 0x02
 622:	ab 81       	ldd	r26, Y+3	; 0x03
 624:	bc 81       	ldd	r27, Y+4	; 0x04
 626:	01 97       	sbiw	r24, 0x01	; 1
 628:	a1 09       	sbc	r26, r1
 62a:	b1 09       	sbc	r27, r1
 62c:	89 83       	std	Y+1, r24	; 0x01
 62e:	9a 83       	std	Y+2, r25	; 0x02
 630:	ab 83       	std	Y+3, r26	; 0x03
 632:	bc 83       	std	Y+4, r27	; 0x04
 634:	89 81       	ldd	r24, Y+1	; 0x01
 636:	9a 81       	ldd	r25, Y+2	; 0x02
 638:	ab 81       	ldd	r26, Y+3	; 0x03
 63a:	bc 81       	ldd	r27, Y+4	; 0x04
 63c:	00 97       	sbiw	r24, 0x00	; 0
 63e:	a1 05       	cpc	r26, r1
 640:	b1 05       	cpc	r27, r1
 642:	61 f7       	brne	.-40     	; 0x61c <main+0x14e>
	LCD_VoidClearScreen();
 644:	0e 94 15 06 	call	0xc2a	; 0xc2a <LCD_VoidClearScreen>
 648:	50 cf       	rjmp	.-352    	; 0x4ea <main+0x1c>

0000064a <LCD_VoidCmd>:
#include "LCD_Config.h"
#include "LCD_interface.h"
#include "../../../MCAL/DIO/DIO_CODE/DIO_interface.h"
/*****************************************************************/
void LCD_VoidCmd(u8 LCD_u8Command)/*send command to LCd */
{
 64a:	df 93       	push	r29
 64c:	cf 93       	push	r28
 64e:	0f 92       	push	r0
 650:	cd b7       	in	r28, 0x3d	; 61
 652:	de b7       	in	r29, 0x3e	; 62
 654:	89 83       	std	Y+1, r24	; 0x01
	//LCD_u8Port=LCD_u8Command;
	LCD_WaitLcd();
 656:	0e 94 0e 04 	call	0x81c	; 0x81c <LCD_WaitLcd>
	#if (LCD_u8LcdMode == LCD_u8Bit8)
	DIO_u8WritePinVal(LCD_u8Reset,DIO_u8LOW );
 65a:	88 e1       	ldi	r24, 0x18	; 24
 65c:	60 e0       	ldi	r22, 0x00	; 0
 65e:	0e 94 c9 00 	call	0x192	; 0x192 <DIO_u8WritePinVal>

	DIO_u8WritePinVal(LCD_u8D0,(LCD_u8Command&Lcd_u8Bit0 ));
 662:	89 81       	ldd	r24, Y+1	; 0x01
 664:	98 2f       	mov	r25, r24
 666:	91 70       	andi	r25, 0x01	; 1
 668:	80 e0       	ldi	r24, 0x00	; 0
 66a:	69 2f       	mov	r22, r25
 66c:	0e 94 c9 00 	call	0x192	; 0x192 <DIO_u8WritePinVal>
	DIO_u8WritePinVal(LCD_u8D1,(LCD_u8Command&Lcd_u8Bit1 ));
 670:	89 81       	ldd	r24, Y+1	; 0x01
 672:	98 2f       	mov	r25, r24
 674:	92 70       	andi	r25, 0x02	; 2
 676:	81 e0       	ldi	r24, 0x01	; 1
 678:	69 2f       	mov	r22, r25
 67a:	0e 94 c9 00 	call	0x192	; 0x192 <DIO_u8WritePinVal>
	DIO_u8WritePinVal(LCD_u8D2,(LCD_u8Command&Lcd_u8Bit2 ));
 67e:	89 81       	ldd	r24, Y+1	; 0x01
 680:	98 2f       	mov	r25, r24
 682:	94 70       	andi	r25, 0x04	; 4
 684:	82 e0       	ldi	r24, 0x02	; 2
 686:	69 2f       	mov	r22, r25
 688:	0e 94 c9 00 	call	0x192	; 0x192 <DIO_u8WritePinVal>
	DIO_u8WritePinVal(LCD_u8D3,(LCD_u8Command&Lcd_u8Bit3 ));
 68c:	89 81       	ldd	r24, Y+1	; 0x01
 68e:	98 2f       	mov	r25, r24
 690:	98 70       	andi	r25, 0x08	; 8
 692:	83 e0       	ldi	r24, 0x03	; 3
 694:	69 2f       	mov	r22, r25
 696:	0e 94 c9 00 	call	0x192	; 0x192 <DIO_u8WritePinVal>
	DIO_u8WritePinVal(LCD_u8D4,(LCD_u8Command&Lcd_u8Bit4 ));
 69a:	89 81       	ldd	r24, Y+1	; 0x01
 69c:	98 2f       	mov	r25, r24
 69e:	90 71       	andi	r25, 0x10	; 16
 6a0:	84 e0       	ldi	r24, 0x04	; 4
 6a2:	69 2f       	mov	r22, r25
 6a4:	0e 94 c9 00 	call	0x192	; 0x192 <DIO_u8WritePinVal>
	DIO_u8WritePinVal(LCD_u8D5,(LCD_u8Command&Lcd_u8Bit5 ));
 6a8:	89 81       	ldd	r24, Y+1	; 0x01
 6aa:	98 2f       	mov	r25, r24
 6ac:	90 72       	andi	r25, 0x20	; 32
 6ae:	85 e0       	ldi	r24, 0x05	; 5
 6b0:	69 2f       	mov	r22, r25
 6b2:	0e 94 c9 00 	call	0x192	; 0x192 <DIO_u8WritePinVal>
	DIO_u8WritePinVal(LCD_u8D6,(LCD_u8Command&Lcd_u8Bit6 ));
 6b6:	89 81       	ldd	r24, Y+1	; 0x01
 6b8:	98 2f       	mov	r25, r24
 6ba:	90 74       	andi	r25, 0x40	; 64
 6bc:	86 e0       	ldi	r24, 0x06	; 6
 6be:	69 2f       	mov	r22, r25
 6c0:	0e 94 c9 00 	call	0x192	; 0x192 <DIO_u8WritePinVal>
	DIO_u8WritePinVal(LCD_u8D7,(LCD_u8Command&Lcd_u8Bit7 ));
 6c4:	89 81       	ldd	r24, Y+1	; 0x01
 6c6:	98 2f       	mov	r25, r24
 6c8:	90 78       	andi	r25, 0x80	; 128
 6ca:	87 e0       	ldi	r24, 0x07	; 7
 6cc:	69 2f       	mov	r22, r25
 6ce:	0e 94 c9 00 	call	0x192	; 0x192 <DIO_u8WritePinVal>

	LCD_EnableLcd();
 6d2:	0e 94 6f 03 	call	0x6de	; 0x6de <LCD_EnableLcd>

	//Delay_ms_Max1s(50);
	#endif

	return;
}
 6d6:	0f 90       	pop	r0
 6d8:	cf 91       	pop	r28
 6da:	df 91       	pop	r29
 6dc:	08 95       	ret

000006de <LCD_EnableLcd>:
	LCD_VoidCmd(0x01);
}
*/
/*****************************************************************/
void LCD_EnableLcd(void)
{
 6de:	df 93       	push	r29
 6e0:	cf 93       	push	r28
 6e2:	cd b7       	in	r28, 0x3d	; 61
 6e4:	de b7       	in	r29, 0x3e	; 62
 6e6:	28 97       	sbiw	r28, 0x08	; 8
 6e8:	0f b6       	in	r0, 0x3f	; 63
 6ea:	f8 94       	cli
 6ec:	de bf       	out	0x3e, r29	; 62
 6ee:	0f be       	out	0x3f, r0	; 63
 6f0:	cd bf       	out	0x3d, r28	; 61
	DIO_u8WritePinVal(LCD_u8Enable,DIO_u8HIGH );
 6f2:	8a e1       	ldi	r24, 0x1A	; 26
 6f4:	61 e0       	ldi	r22, 0x01	; 1
 6f6:	0e 94 c9 00 	call	0x192	; 0x192 <DIO_u8WritePinVal>
	Delay_ms_Max1s(1);
 6fa:	8d e7       	ldi	r24, 0x7D	; 125
 6fc:	90 e0       	ldi	r25, 0x00	; 0
 6fe:	a0 e0       	ldi	r26, 0x00	; 0
 700:	b0 e0       	ldi	r27, 0x00	; 0
 702:	8d 83       	std	Y+5, r24	; 0x05
 704:	9e 83       	std	Y+6, r25	; 0x06
 706:	af 83       	std	Y+7, r26	; 0x07
 708:	b8 87       	std	Y+8, r27	; 0x08
 70a:	0c c0       	rjmp	.+24     	; 0x724 <LCD_EnableLcd+0x46>
 70c:	00 00       	nop
 70e:	8d 81       	ldd	r24, Y+5	; 0x05
 710:	9e 81       	ldd	r25, Y+6	; 0x06
 712:	af 81       	ldd	r26, Y+7	; 0x07
 714:	b8 85       	ldd	r27, Y+8	; 0x08
 716:	01 97       	sbiw	r24, 0x01	; 1
 718:	a1 09       	sbc	r26, r1
 71a:	b1 09       	sbc	r27, r1
 71c:	8d 83       	std	Y+5, r24	; 0x05
 71e:	9e 83       	std	Y+6, r25	; 0x06
 720:	af 83       	std	Y+7, r26	; 0x07
 722:	b8 87       	std	Y+8, r27	; 0x08
 724:	8d 81       	ldd	r24, Y+5	; 0x05
 726:	9e 81       	ldd	r25, Y+6	; 0x06
 728:	af 81       	ldd	r26, Y+7	; 0x07
 72a:	b8 85       	ldd	r27, Y+8	; 0x08
 72c:	00 97       	sbiw	r24, 0x00	; 0
 72e:	a1 05       	cpc	r26, r1
 730:	b1 05       	cpc	r27, r1
 732:	61 f7       	brne	.-40     	; 0x70c <LCD_EnableLcd+0x2e>
	DIO_u8WritePinVal(LCD_u8Enable,DIO_u8LOW );
 734:	8a e1       	ldi	r24, 0x1A	; 26
 736:	60 e0       	ldi	r22, 0x00	; 0
 738:	0e 94 c9 00 	call	0x192	; 0x192 <DIO_u8WritePinVal>
	Delay_ms_Max1s(1);
 73c:	8d e7       	ldi	r24, 0x7D	; 125
 73e:	90 e0       	ldi	r25, 0x00	; 0
 740:	a0 e0       	ldi	r26, 0x00	; 0
 742:	b0 e0       	ldi	r27, 0x00	; 0
 744:	89 83       	std	Y+1, r24	; 0x01
 746:	9a 83       	std	Y+2, r25	; 0x02
 748:	ab 83       	std	Y+3, r26	; 0x03
 74a:	bc 83       	std	Y+4, r27	; 0x04
 74c:	0c c0       	rjmp	.+24     	; 0x766 <LCD_EnableLcd+0x88>
 74e:	00 00       	nop
 750:	89 81       	ldd	r24, Y+1	; 0x01
 752:	9a 81       	ldd	r25, Y+2	; 0x02
 754:	ab 81       	ldd	r26, Y+3	; 0x03
 756:	bc 81       	ldd	r27, Y+4	; 0x04
 758:	01 97       	sbiw	r24, 0x01	; 1
 75a:	a1 09       	sbc	r26, r1
 75c:	b1 09       	sbc	r27, r1
 75e:	89 83       	std	Y+1, r24	; 0x01
 760:	9a 83       	std	Y+2, r25	; 0x02
 762:	ab 83       	std	Y+3, r26	; 0x03
 764:	bc 83       	std	Y+4, r27	; 0x04
 766:	89 81       	ldd	r24, Y+1	; 0x01
 768:	9a 81       	ldd	r25, Y+2	; 0x02
 76a:	ab 81       	ldd	r26, Y+3	; 0x03
 76c:	bc 81       	ldd	r27, Y+4	; 0x04
 76e:	00 97       	sbiw	r24, 0x00	; 0
 770:	a1 05       	cpc	r26, r1
 772:	b1 05       	cpc	r27, r1
 774:	61 f7       	brne	.-40     	; 0x74e <LCD_EnableLcd+0x70>
}
 776:	28 96       	adiw	r28, 0x08	; 8
 778:	0f b6       	in	r0, 0x3f	; 63
 77a:	f8 94       	cli
 77c:	de bf       	out	0x3e, r29	; 62
 77e:	0f be       	out	0x3f, r0	; 63
 780:	cd bf       	out	0x3d, r28	; 61
 782:	cf 91       	pop	r28
 784:	df 91       	pop	r29
 786:	08 95       	ret

00000788 <LCD_VoidData>:
	DIO_u8WritePinVal(LCD_u8D3,DIO_u8LOW);
}
*/
/*****************************************************************/
void LCD_VoidData(u8 LCD_u8Data)
{
 788:	df 93       	push	r29
 78a:	cf 93       	push	r28
 78c:	0f 92       	push	r0
 78e:	cd b7       	in	r28, 0x3d	; 61
 790:	de b7       	in	r29, 0x3e	; 62
 792:	89 83       	std	Y+1, r24	; 0x01
	LCD_WaitLcd();
 794:	0e 94 0e 04 	call	0x81c	; 0x81c <LCD_WaitLcd>
	#if (LCD_u8LcdMode == LCD_u8Bit8)

	DIO_u8WritePinVal(LCD_u8Reset,DIO_u8HIGH );
 798:	88 e1       	ldi	r24, 0x18	; 24
 79a:	61 e0       	ldi	r22, 0x01	; 1
 79c:	0e 94 c9 00 	call	0x192	; 0x192 <DIO_u8WritePinVal>

	DIO_u8WritePinVal(LCD_u8D0,(LCD_u8Data&Lcd_u8Bit0 )  );
 7a0:	89 81       	ldd	r24, Y+1	; 0x01
 7a2:	98 2f       	mov	r25, r24
 7a4:	91 70       	andi	r25, 0x01	; 1
 7a6:	80 e0       	ldi	r24, 0x00	; 0
 7a8:	69 2f       	mov	r22, r25
 7aa:	0e 94 c9 00 	call	0x192	; 0x192 <DIO_u8WritePinVal>
	DIO_u8WritePinVal(LCD_u8D1,(LCD_u8Data&Lcd_u8Bit1 )  );
 7ae:	89 81       	ldd	r24, Y+1	; 0x01
 7b0:	98 2f       	mov	r25, r24
 7b2:	92 70       	andi	r25, 0x02	; 2
 7b4:	81 e0       	ldi	r24, 0x01	; 1
 7b6:	69 2f       	mov	r22, r25
 7b8:	0e 94 c9 00 	call	0x192	; 0x192 <DIO_u8WritePinVal>
	DIO_u8WritePinVal(LCD_u8D2,(LCD_u8Data&Lcd_u8Bit2 )  );
 7bc:	89 81       	ldd	r24, Y+1	; 0x01
 7be:	98 2f       	mov	r25, r24
 7c0:	94 70       	andi	r25, 0x04	; 4
 7c2:	82 e0       	ldi	r24, 0x02	; 2
 7c4:	69 2f       	mov	r22, r25
 7c6:	0e 94 c9 00 	call	0x192	; 0x192 <DIO_u8WritePinVal>
	DIO_u8WritePinVal(LCD_u8D3,(LCD_u8Data&Lcd_u8Bit3 )  );
 7ca:	89 81       	ldd	r24, Y+1	; 0x01
 7cc:	98 2f       	mov	r25, r24
 7ce:	98 70       	andi	r25, 0x08	; 8
 7d0:	83 e0       	ldi	r24, 0x03	; 3
 7d2:	69 2f       	mov	r22, r25
 7d4:	0e 94 c9 00 	call	0x192	; 0x192 <DIO_u8WritePinVal>
	DIO_u8WritePinVal(LCD_u8D4,(LCD_u8Data&Lcd_u8Bit4 )  );
 7d8:	89 81       	ldd	r24, Y+1	; 0x01
 7da:	98 2f       	mov	r25, r24
 7dc:	90 71       	andi	r25, 0x10	; 16
 7de:	84 e0       	ldi	r24, 0x04	; 4
 7e0:	69 2f       	mov	r22, r25
 7e2:	0e 94 c9 00 	call	0x192	; 0x192 <DIO_u8WritePinVal>
	DIO_u8WritePinVal(LCD_u8D5,(LCD_u8Data&Lcd_u8Bit5 )  );
 7e6:	89 81       	ldd	r24, Y+1	; 0x01
 7e8:	98 2f       	mov	r25, r24
 7ea:	90 72       	andi	r25, 0x20	; 32
 7ec:	85 e0       	ldi	r24, 0x05	; 5
 7ee:	69 2f       	mov	r22, r25
 7f0:	0e 94 c9 00 	call	0x192	; 0x192 <DIO_u8WritePinVal>
	DIO_u8WritePinVal(LCD_u8D6,(LCD_u8Data&Lcd_u8Bit6 )  );
 7f4:	89 81       	ldd	r24, Y+1	; 0x01
 7f6:	98 2f       	mov	r25, r24
 7f8:	90 74       	andi	r25, 0x40	; 64
 7fa:	86 e0       	ldi	r24, 0x06	; 6
 7fc:	69 2f       	mov	r22, r25
 7fe:	0e 94 c9 00 	call	0x192	; 0x192 <DIO_u8WritePinVal>
	DIO_u8WritePinVal(LCD_u8D7,(LCD_u8Data&Lcd_u8Bit7 )  );
 802:	89 81       	ldd	r24, Y+1	; 0x01
 804:	98 2f       	mov	r25, r24
 806:	90 78       	andi	r25, 0x80	; 128
 808:	87 e0       	ldi	r24, 0x07	; 7
 80a:	69 2f       	mov	r22, r25
 80c:	0e 94 c9 00 	call	0x192	; 0x192 <DIO_u8WritePinVal>

	//ctrl = (1<<rs)|(0<<rw)|(1<<en); // RW as LOW and RS, EN as HIGH
	LCD_EnableLcd();
 810:	0e 94 6f 03 	call	0x6de	; 0x6de <LCD_EnableLcd>

	//Delay_ms_Max1s(50);
	#endif

	return ;
}
 814:	0f 90       	pop	r0
 816:	cf 91       	pop	r28
 818:	df 91       	pop	r29
 81a:	08 95       	ret

0000081c <LCD_WaitLcd>:
/*****************************************************************/
void LCD_WaitLcd(void)
{
 81c:	df 93       	push	r29
 81e:	cf 93       	push	r28
 820:	cd b7       	in	r28, 0x3d	; 61
 822:	de b7       	in	r29, 0x3e	; 62
 824:	61 97       	sbiw	r28, 0x11	; 17
 826:	0f b6       	in	r0, 0x3f	; 63
 828:	f8 94       	cli
 82a:	de bf       	out	0x3e, r29	; 62
 82c:	0f be       	out	0x3f, r0	; 63
 82e:	cd bf       	out	0x3d, r28	; 61
	DIO_u8WritePinDir(LCD_u8D1,DIO_u8INPUT);//lazm el 4 yb2o i/p 3shan ama b2lb enable mn high l low bib3t lcd btb3t high
	DIO_u8WritePinDir(LCD_u8D2,DIO_u8INPUT);//lazm el 4 yb2o i/p 3shan ama b2lb enable mn high l low bib3t lcd btb3t high
	DIO_u8WritePinDir(LCD_u8D3,DIO_u8INPUT);//lazm el 4 yb2o i/p 3shan ama b2lb enable mn high l low bib3t lcd btb3t high
	DIO_u8WritePinVal(LCD_u8ReadWrite,DIO_u8HIGH);//rw=1.
	#elif (LCD_u8LcdMode == LCD_u8Bit8)
	DIO_u8WritePinDir(LCD_u8D0,DIO_u8INPUT);
 830:	80 e0       	ldi	r24, 0x00	; 0
 832:	60 e0       	ldi	r22, 0x00	; 0
 834:	0e 94 85 01 	call	0x30a	; 0x30a <DIO_u8WritePinDir>
	DIO_u8WritePinDir(LCD_u8D1,DIO_u8INPUT);
 838:	81 e0       	ldi	r24, 0x01	; 1
 83a:	60 e0       	ldi	r22, 0x00	; 0
 83c:	0e 94 85 01 	call	0x30a	; 0x30a <DIO_u8WritePinDir>
	DIO_u8WritePinDir(LCD_u8D2,DIO_u8INPUT);
 840:	82 e0       	ldi	r24, 0x02	; 2
 842:	60 e0       	ldi	r22, 0x00	; 0
 844:	0e 94 85 01 	call	0x30a	; 0x30a <DIO_u8WritePinDir>
	DIO_u8WritePinDir(LCD_u8D3,DIO_u8INPUT);
 848:	83 e0       	ldi	r24, 0x03	; 3
 84a:	60 e0       	ldi	r22, 0x00	; 0
 84c:	0e 94 85 01 	call	0x30a	; 0x30a <DIO_u8WritePinDir>
	DIO_u8WritePinDir(LCD_u8D4,DIO_u8INPUT);
 850:	84 e0       	ldi	r24, 0x04	; 4
 852:	60 e0       	ldi	r22, 0x00	; 0
 854:	0e 94 85 01 	call	0x30a	; 0x30a <DIO_u8WritePinDir>
	DIO_u8WritePinDir(LCD_u8D5,DIO_u8INPUT);
 858:	85 e0       	ldi	r24, 0x05	; 5
 85a:	60 e0       	ldi	r22, 0x00	; 0
 85c:	0e 94 85 01 	call	0x30a	; 0x30a <DIO_u8WritePinDir>
	DIO_u8WritePinDir(LCD_u8D6,DIO_u8INPUT);
 860:	86 e0       	ldi	r24, 0x06	; 6
 862:	60 e0       	ldi	r22, 0x00	; 0
 864:	0e 94 85 01 	call	0x30a	; 0x30a <DIO_u8WritePinDir>
	DIO_u8WritePinDir(LCD_u8D7,DIO_u8INPUT);
 868:	87 e0       	ldi	r24, 0x07	; 7
 86a:	60 e0       	ldi	r22, 0x00	; 0
 86c:	0e 94 85 01 	call	0x30a	; 0x30a <DIO_u8WritePinDir>
	DIO_u8WritePinVal(LCD_u8ReadWrite,DIO_u8HIGH);//rw=1.
 870:	89 e1       	ldi	r24, 0x19	; 25
 872:	61 e0       	ldi	r22, 0x01	; 1
 874:	0e 94 c9 00 	call	0x192	; 0x192 <DIO_u8WritePinVal>
	#endif
	DIO_u8WritePinVal(LCD_u8Reset,DIO_u8LOW);//rs=0.
 878:	88 e1       	ldi	r24, 0x18	; 24
 87a:	60 e0       	ldi	r22, 0x00	; 0
 87c:	0e 94 c9 00 	call	0x192	; 0x192 <DIO_u8WritePinVal>
	do
	{
		Local_u8ValBusyFlag=0;
 880:	19 8a       	std	Y+17, r1	; 0x11
		DIO_u8WritePinVal(LCD_u8Enable,DIO_u8HIGH);//Enable=1.
 882:	8a e1       	ldi	r24, 0x1A	; 26
 884:	61 e0       	ldi	r22, 0x01	; 1
 886:	0e 94 c9 00 	call	0x192	; 0x192 <DIO_u8WritePinVal>
		Delay_ms_Max1s(1);
 88a:	8d e7       	ldi	r24, 0x7D	; 125
 88c:	90 e0       	ldi	r25, 0x00	; 0
 88e:	a0 e0       	ldi	r26, 0x00	; 0
 890:	b0 e0       	ldi	r27, 0x00	; 0
 892:	8d 87       	std	Y+13, r24	; 0x0d
 894:	9e 87       	std	Y+14, r25	; 0x0e
 896:	af 87       	std	Y+15, r26	; 0x0f
 898:	b8 8b       	std	Y+16, r27	; 0x10
 89a:	0c c0       	rjmp	.+24     	; 0x8b4 <LCD_WaitLcd+0x98>
 89c:	00 00       	nop
 89e:	8d 85       	ldd	r24, Y+13	; 0x0d
 8a0:	9e 85       	ldd	r25, Y+14	; 0x0e
 8a2:	af 85       	ldd	r26, Y+15	; 0x0f
 8a4:	b8 89       	ldd	r27, Y+16	; 0x10
 8a6:	01 97       	sbiw	r24, 0x01	; 1
 8a8:	a1 09       	sbc	r26, r1
 8aa:	b1 09       	sbc	r27, r1
 8ac:	8d 87       	std	Y+13, r24	; 0x0d
 8ae:	9e 87       	std	Y+14, r25	; 0x0e
 8b0:	af 87       	std	Y+15, r26	; 0x0f
 8b2:	b8 8b       	std	Y+16, r27	; 0x10
 8b4:	8d 85       	ldd	r24, Y+13	; 0x0d
 8b6:	9e 85       	ldd	r25, Y+14	; 0x0e
 8b8:	af 85       	ldd	r26, Y+15	; 0x0f
 8ba:	b8 89       	ldd	r27, Y+16	; 0x10
 8bc:	00 97       	sbiw	r24, 0x00	; 0
 8be:	a1 05       	cpc	r26, r1
 8c0:	b1 05       	cpc	r27, r1
 8c2:	61 f7       	brne	.-40     	; 0x89c <LCD_WaitLcd+0x80>
		#if (LCD_u8LcdMode == LCD_u8Bit4)
		DIO_u8ReadPinVal(LCD_u8D3,&Local_u8ValBusyFlag );
		#elif (LCD_u8LcdMode == LCD_u8Bit8)
		DIO_u8ReadPinVal(LCD_u8D7,&Local_u8ValBusyFlag );
 8c4:	9e 01       	movw	r18, r28
 8c6:	2f 5e       	subi	r18, 0xEF	; 239
 8c8:	3f 4f       	sbci	r19, 0xFF	; 255
 8ca:	87 e0       	ldi	r24, 0x07	; 7
 8cc:	b9 01       	movw	r22, r18
 8ce:	0e 94 7e 00 	call	0xfc	; 0xfc <DIO_u8ReadPinVal>
		#endif
		Delay_ms_Max1s(1);
 8d2:	8d e7       	ldi	r24, 0x7D	; 125
 8d4:	90 e0       	ldi	r25, 0x00	; 0
 8d6:	a0 e0       	ldi	r26, 0x00	; 0
 8d8:	b0 e0       	ldi	r27, 0x00	; 0
 8da:	89 87       	std	Y+9, r24	; 0x09
 8dc:	9a 87       	std	Y+10, r25	; 0x0a
 8de:	ab 87       	std	Y+11, r26	; 0x0b
 8e0:	bc 87       	std	Y+12, r27	; 0x0c
 8e2:	0c c0       	rjmp	.+24     	; 0x8fc <LCD_WaitLcd+0xe0>
 8e4:	00 00       	nop
 8e6:	89 85       	ldd	r24, Y+9	; 0x09
 8e8:	9a 85       	ldd	r25, Y+10	; 0x0a
 8ea:	ab 85       	ldd	r26, Y+11	; 0x0b
 8ec:	bc 85       	ldd	r27, Y+12	; 0x0c
 8ee:	01 97       	sbiw	r24, 0x01	; 1
 8f0:	a1 09       	sbc	r26, r1
 8f2:	b1 09       	sbc	r27, r1
 8f4:	89 87       	std	Y+9, r24	; 0x09
 8f6:	9a 87       	std	Y+10, r25	; 0x0a
 8f8:	ab 87       	std	Y+11, r26	; 0x0b
 8fa:	bc 87       	std	Y+12, r27	; 0x0c
 8fc:	89 85       	ldd	r24, Y+9	; 0x09
 8fe:	9a 85       	ldd	r25, Y+10	; 0x0a
 900:	ab 85       	ldd	r26, Y+11	; 0x0b
 902:	bc 85       	ldd	r27, Y+12	; 0x0c
 904:	00 97       	sbiw	r24, 0x00	; 0
 906:	a1 05       	cpc	r26, r1
 908:	b1 05       	cpc	r27, r1
 90a:	61 f7       	brne	.-40     	; 0x8e4 <LCD_WaitLcd+0xc8>
		DIO_u8WritePinVal(LCD_u8Enable,DIO_u8LOW);//e=0.
 90c:	8a e1       	ldi	r24, 0x1A	; 26
 90e:	60 e0       	ldi	r22, 0x00	; 0
 910:	0e 94 c9 00 	call	0x192	; 0x192 <DIO_u8WritePinVal>
		Delay_ms_Max1s(1);
 914:	8d e7       	ldi	r24, 0x7D	; 125
 916:	90 e0       	ldi	r25, 0x00	; 0
 918:	a0 e0       	ldi	r26, 0x00	; 0
 91a:	b0 e0       	ldi	r27, 0x00	; 0
 91c:	8d 83       	std	Y+5, r24	; 0x05
 91e:	9e 83       	std	Y+6, r25	; 0x06
 920:	af 83       	std	Y+7, r26	; 0x07
 922:	b8 87       	std	Y+8, r27	; 0x08
 924:	0c c0       	rjmp	.+24     	; 0x93e <LCD_WaitLcd+0x122>
 926:	00 00       	nop
 928:	8d 81       	ldd	r24, Y+5	; 0x05
 92a:	9e 81       	ldd	r25, Y+6	; 0x06
 92c:	af 81       	ldd	r26, Y+7	; 0x07
 92e:	b8 85       	ldd	r27, Y+8	; 0x08
 930:	01 97       	sbiw	r24, 0x01	; 1
 932:	a1 09       	sbc	r26, r1
 934:	b1 09       	sbc	r27, r1
 936:	8d 83       	std	Y+5, r24	; 0x05
 938:	9e 83       	std	Y+6, r25	; 0x06
 93a:	af 83       	std	Y+7, r26	; 0x07
 93c:	b8 87       	std	Y+8, r27	; 0x08
 93e:	8d 81       	ldd	r24, Y+5	; 0x05
 940:	9e 81       	ldd	r25, Y+6	; 0x06
 942:	af 81       	ldd	r26, Y+7	; 0x07
 944:	b8 85       	ldd	r27, Y+8	; 0x08
 946:	00 97       	sbiw	r24, 0x00	; 0
 948:	a1 05       	cpc	r26, r1
 94a:	b1 05       	cpc	r27, r1
 94c:	61 f7       	brne	.-40     	; 0x926 <LCD_WaitLcd+0x10a>

		DIO_u8WritePinVal(LCD_u8Enable,DIO_u8HIGH);//e=1
 94e:	8a e1       	ldi	r24, 0x1A	; 26
 950:	61 e0       	ldi	r22, 0x01	; 1
 952:	0e 94 c9 00 	call	0x192	; 0x192 <DIO_u8WritePinVal>
		Delay_ms_Max1s(1);
 956:	8d e7       	ldi	r24, 0x7D	; 125
 958:	90 e0       	ldi	r25, 0x00	; 0
 95a:	a0 e0       	ldi	r26, 0x00	; 0
 95c:	b0 e0       	ldi	r27, 0x00	; 0
 95e:	89 83       	std	Y+1, r24	; 0x01
 960:	9a 83       	std	Y+2, r25	; 0x02
 962:	ab 83       	std	Y+3, r26	; 0x03
 964:	bc 83       	std	Y+4, r27	; 0x04
 966:	0c c0       	rjmp	.+24     	; 0x980 <LCD_WaitLcd+0x164>
 968:	00 00       	nop
 96a:	89 81       	ldd	r24, Y+1	; 0x01
 96c:	9a 81       	ldd	r25, Y+2	; 0x02
 96e:	ab 81       	ldd	r26, Y+3	; 0x03
 970:	bc 81       	ldd	r27, Y+4	; 0x04
 972:	01 97       	sbiw	r24, 0x01	; 1
 974:	a1 09       	sbc	r26, r1
 976:	b1 09       	sbc	r27, r1
 978:	89 83       	std	Y+1, r24	; 0x01
 97a:	9a 83       	std	Y+2, r25	; 0x02
 97c:	ab 83       	std	Y+3, r26	; 0x03
 97e:	bc 83       	std	Y+4, r27	; 0x04
 980:	89 81       	ldd	r24, Y+1	; 0x01
 982:	9a 81       	ldd	r25, Y+2	; 0x02
 984:	ab 81       	ldd	r26, Y+3	; 0x03
 986:	bc 81       	ldd	r27, Y+4	; 0x04
 988:	00 97       	sbiw	r24, 0x00	; 0
 98a:	a1 05       	cpc	r26, r1
 98c:	b1 05       	cpc	r27, r1
 98e:	61 f7       	brne	.-40     	; 0x968 <LCD_WaitLcd+0x14c>
	}while(Local_u8ValBusyFlag == LCD_u8Busy);
 990:	89 89       	ldd	r24, Y+17	; 0x11
 992:	81 30       	cpi	r24, 0x01	; 1
 994:	09 f4       	brne	.+2      	; 0x998 <LCD_WaitLcd+0x17c>
 996:	74 cf       	rjmp	.-280    	; 0x880 <LCD_WaitLcd+0x64>
	DIO_u8WritePinVal(LCD_u8ReadWrite,DIO_u8LOW);//rw=0.
 998:	89 e1       	ldi	r24, 0x19	; 25
 99a:	60 e0       	ldi	r22, 0x00	; 0
 99c:	0e 94 c9 00 	call	0x192	; 0x192 <DIO_u8WritePinVal>
	DIO_u8WritePinDir(LCD_u8D1,DIO_u8OUTPUT);
	DIO_u8WritePinDir(LCD_u8D2,DIO_u8OUTPUT);
	DIO_u8WritePinDir(LCD_u8D3,DIO_u8OUTPUT);
	Delay_ms_Max1s(1);
	#elif (LCD_u8LcdMode == LCD_u8Bit8)
	DIO_u8WritePinDir(LCD_u8D0,DIO_u8OUTPUT);
 9a0:	80 e0       	ldi	r24, 0x00	; 0
 9a2:	61 e0       	ldi	r22, 0x01	; 1
 9a4:	0e 94 85 01 	call	0x30a	; 0x30a <DIO_u8WritePinDir>
	DIO_u8WritePinDir(LCD_u8D1,DIO_u8OUTPUT);
 9a8:	81 e0       	ldi	r24, 0x01	; 1
 9aa:	61 e0       	ldi	r22, 0x01	; 1
 9ac:	0e 94 85 01 	call	0x30a	; 0x30a <DIO_u8WritePinDir>
	DIO_u8WritePinDir(LCD_u8D2,DIO_u8OUTPUT);
 9b0:	82 e0       	ldi	r24, 0x02	; 2
 9b2:	61 e0       	ldi	r22, 0x01	; 1
 9b4:	0e 94 85 01 	call	0x30a	; 0x30a <DIO_u8WritePinDir>
	DIO_u8WritePinDir(LCD_u8D3,DIO_u8OUTPUT);
 9b8:	83 e0       	ldi	r24, 0x03	; 3
 9ba:	61 e0       	ldi	r22, 0x01	; 1
 9bc:	0e 94 85 01 	call	0x30a	; 0x30a <DIO_u8WritePinDir>
	DIO_u8WritePinDir(LCD_u8D4,DIO_u8OUTPUT);
 9c0:	84 e0       	ldi	r24, 0x04	; 4
 9c2:	61 e0       	ldi	r22, 0x01	; 1
 9c4:	0e 94 85 01 	call	0x30a	; 0x30a <DIO_u8WritePinDir>
	DIO_u8WritePinDir(LCD_u8D5,DIO_u8OUTPUT);
 9c8:	85 e0       	ldi	r24, 0x05	; 5
 9ca:	61 e0       	ldi	r22, 0x01	; 1
 9cc:	0e 94 85 01 	call	0x30a	; 0x30a <DIO_u8WritePinDir>
	DIO_u8WritePinDir(LCD_u8D6,DIO_u8OUTPUT);
 9d0:	86 e0       	ldi	r24, 0x06	; 6
 9d2:	61 e0       	ldi	r22, 0x01	; 1
 9d4:	0e 94 85 01 	call	0x30a	; 0x30a <DIO_u8WritePinDir>
	DIO_u8WritePinDir(LCD_u8D7,DIO_u8OUTPUT);
 9d8:	87 e0       	ldi	r24, 0x07	; 7
 9da:	61 e0       	ldi	r22, 0x01	; 1
 9dc:	0e 94 85 01 	call	0x30a	; 0x30a <DIO_u8WritePinDir>
	#endif
}
 9e0:	61 96       	adiw	r28, 0x11	; 17
 9e2:	0f b6       	in	r0, 0x3f	; 63
 9e4:	f8 94       	cli
 9e6:	de bf       	out	0x3e, r29	; 62
 9e8:	0f be       	out	0x3f, r0	; 63
 9ea:	cd bf       	out	0x3d, r28	; 61
 9ec:	cf 91       	pop	r28
 9ee:	df 91       	pop	r29
 9f0:	08 95       	ret

000009f2 <LCD_VoidInit>:
/*****************************************************************/
void LCD_VoidInit(void)
{
 9f2:	df 93       	push	r29
 9f4:	cf 93       	push	r28
 9f6:	cd b7       	in	r28, 0x3d	; 61
 9f8:	de b7       	in	r29, 0x3e	; 62
 9fa:	60 97       	sbiw	r28, 0x10	; 16
 9fc:	0f b6       	in	r0, 0x3f	; 63
 9fe:	f8 94       	cli
 a00:	de bf       	out	0x3e, r29	; 62
 a02:	0f be       	out	0x3f, r0	; 63
 a04:	cd bf       	out	0x3d, r28	; 61

	#if (LCD_u8LcdMode == LCD_u8Bit8)
	LCD_VoidCmd(0x38); // initialization of 16X2 LCD in 8bit mode
 a06:	88 e3       	ldi	r24, 0x38	; 56
 a08:	0e 94 25 03 	call	0x64a	; 0x64a <LCD_VoidCmd>
	Delay_ms_Max1s(20);
 a0c:	84 ec       	ldi	r24, 0xC4	; 196
 a0e:	99 e0       	ldi	r25, 0x09	; 9
 a10:	a0 e0       	ldi	r26, 0x00	; 0
 a12:	b0 e0       	ldi	r27, 0x00	; 0
 a14:	8d 87       	std	Y+13, r24	; 0x0d
 a16:	9e 87       	std	Y+14, r25	; 0x0e
 a18:	af 87       	std	Y+15, r26	; 0x0f
 a1a:	b8 8b       	std	Y+16, r27	; 0x10
 a1c:	0c c0       	rjmp	.+24     	; 0xa36 <LCD_VoidInit+0x44>
 a1e:	00 00       	nop
 a20:	8d 85       	ldd	r24, Y+13	; 0x0d
 a22:	9e 85       	ldd	r25, Y+14	; 0x0e
 a24:	af 85       	ldd	r26, Y+15	; 0x0f
 a26:	b8 89       	ldd	r27, Y+16	; 0x10
 a28:	01 97       	sbiw	r24, 0x01	; 1
 a2a:	a1 09       	sbc	r26, r1
 a2c:	b1 09       	sbc	r27, r1
 a2e:	8d 87       	std	Y+13, r24	; 0x0d
 a30:	9e 87       	std	Y+14, r25	; 0x0e
 a32:	af 87       	std	Y+15, r26	; 0x0f
 a34:	b8 8b       	std	Y+16, r27	; 0x10
 a36:	8d 85       	ldd	r24, Y+13	; 0x0d
 a38:	9e 85       	ldd	r25, Y+14	; 0x0e
 a3a:	af 85       	ldd	r26, Y+15	; 0x0f
 a3c:	b8 89       	ldd	r27, Y+16	; 0x10
 a3e:	00 97       	sbiw	r24, 0x00	; 0
 a40:	a1 05       	cpc	r26, r1
 a42:	b1 05       	cpc	r27, r1
 a44:	61 f7       	brne	.-40     	; 0xa1e <LCD_VoidInit+0x2c>

	LCD_VoidCmd(0x01); // clear LCD
 a46:	81 e0       	ldi	r24, 0x01	; 1
 a48:	0e 94 25 03 	call	0x64a	; 0x64a <LCD_VoidCmd>
	Delay_ms_Max1s(1);
 a4c:	8d e7       	ldi	r24, 0x7D	; 125
 a4e:	90 e0       	ldi	r25, 0x00	; 0
 a50:	a0 e0       	ldi	r26, 0x00	; 0
 a52:	b0 e0       	ldi	r27, 0x00	; 0
 a54:	89 87       	std	Y+9, r24	; 0x09
 a56:	9a 87       	std	Y+10, r25	; 0x0a
 a58:	ab 87       	std	Y+11, r26	; 0x0b
 a5a:	bc 87       	std	Y+12, r27	; 0x0c
 a5c:	0c c0       	rjmp	.+24     	; 0xa76 <LCD_VoidInit+0x84>
 a5e:	00 00       	nop
 a60:	89 85       	ldd	r24, Y+9	; 0x09
 a62:	9a 85       	ldd	r25, Y+10	; 0x0a
 a64:	ab 85       	ldd	r26, Y+11	; 0x0b
 a66:	bc 85       	ldd	r27, Y+12	; 0x0c
 a68:	01 97       	sbiw	r24, 0x01	; 1
 a6a:	a1 09       	sbc	r26, r1
 a6c:	b1 09       	sbc	r27, r1
 a6e:	89 87       	std	Y+9, r24	; 0x09
 a70:	9a 87       	std	Y+10, r25	; 0x0a
 a72:	ab 87       	std	Y+11, r26	; 0x0b
 a74:	bc 87       	std	Y+12, r27	; 0x0c
 a76:	89 85       	ldd	r24, Y+9	; 0x09
 a78:	9a 85       	ldd	r25, Y+10	; 0x0a
 a7a:	ab 85       	ldd	r26, Y+11	; 0x0b
 a7c:	bc 85       	ldd	r27, Y+12	; 0x0c
 a7e:	00 97       	sbiw	r24, 0x00	; 0
 a80:	a1 05       	cpc	r26, r1
 a82:	b1 05       	cpc	r27, r1
 a84:	61 f7       	brne	.-40     	; 0xa5e <LCD_VoidInit+0x6c>

	LCD_VoidCmd(0x0C); // cursor Off// Automatic Increment  No Display shift.
 a86:	8c e0       	ldi	r24, 0x0C	; 12
 a88:	0e 94 25 03 	call	0x64a	; 0x64a <LCD_VoidCmd>
	Delay_ms_Max1s(1);
 a8c:	8d e7       	ldi	r24, 0x7D	; 125
 a8e:	90 e0       	ldi	r25, 0x00	; 0
 a90:	a0 e0       	ldi	r26, 0x00	; 0
 a92:	b0 e0       	ldi	r27, 0x00	; 0
 a94:	8d 83       	std	Y+5, r24	; 0x05
 a96:	9e 83       	std	Y+6, r25	; 0x06
 a98:	af 83       	std	Y+7, r26	; 0x07
 a9a:	b8 87       	std	Y+8, r27	; 0x08
 a9c:	0c c0       	rjmp	.+24     	; 0xab6 <LCD_VoidInit+0xc4>
 a9e:	00 00       	nop
 aa0:	8d 81       	ldd	r24, Y+5	; 0x05
 aa2:	9e 81       	ldd	r25, Y+6	; 0x06
 aa4:	af 81       	ldd	r26, Y+7	; 0x07
 aa6:	b8 85       	ldd	r27, Y+8	; 0x08
 aa8:	01 97       	sbiw	r24, 0x01	; 1
 aaa:	a1 09       	sbc	r26, r1
 aac:	b1 09       	sbc	r27, r1
 aae:	8d 83       	std	Y+5, r24	; 0x05
 ab0:	9e 83       	std	Y+6, r25	; 0x06
 ab2:	af 83       	std	Y+7, r26	; 0x07
 ab4:	b8 87       	std	Y+8, r27	; 0x08
 ab6:	8d 81       	ldd	r24, Y+5	; 0x05
 ab8:	9e 81       	ldd	r25, Y+6	; 0x06
 aba:	af 81       	ldd	r26, Y+7	; 0x07
 abc:	b8 85       	ldd	r27, Y+8	; 0x08
 abe:	00 97       	sbiw	r24, 0x00	; 0
 ac0:	a1 05       	cpc	r26, r1
 ac2:	b1 05       	cpc	r27, r1
 ac4:	61 f7       	brne	.-40     	; 0xa9e <LCD_VoidInit+0xac>

	LCD_VoidCmd(0x80); // --- go to first line and --0 is for 0th position
 ac6:	80 e8       	ldi	r24, 0x80	; 128
 ac8:	0e 94 25 03 	call	0x64a	; 0x64a <LCD_VoidCmd>
	Delay_ms_Max1s(1);
 acc:	8d e7       	ldi	r24, 0x7D	; 125
 ace:	90 e0       	ldi	r25, 0x00	; 0
 ad0:	a0 e0       	ldi	r26, 0x00	; 0
 ad2:	b0 e0       	ldi	r27, 0x00	; 0
 ad4:	89 83       	std	Y+1, r24	; 0x01
 ad6:	9a 83       	std	Y+2, r25	; 0x02
 ad8:	ab 83       	std	Y+3, r26	; 0x03
 ada:	bc 83       	std	Y+4, r27	; 0x04
 adc:	0c c0       	rjmp	.+24     	; 0xaf6 <LCD_VoidInit+0x104>
 ade:	00 00       	nop
 ae0:	89 81       	ldd	r24, Y+1	; 0x01
 ae2:	9a 81       	ldd	r25, Y+2	; 0x02
 ae4:	ab 81       	ldd	r26, Y+3	; 0x03
 ae6:	bc 81       	ldd	r27, Y+4	; 0x04
 ae8:	01 97       	sbiw	r24, 0x01	; 1
 aea:	a1 09       	sbc	r26, r1
 aec:	b1 09       	sbc	r27, r1
 aee:	89 83       	std	Y+1, r24	; 0x01
 af0:	9a 83       	std	Y+2, r25	; 0x02
 af2:	ab 83       	std	Y+3, r26	; 0x03
 af4:	bc 83       	std	Y+4, r27	; 0x04
 af6:	89 81       	ldd	r24, Y+1	; 0x01
 af8:	9a 81       	ldd	r25, Y+2	; 0x02
 afa:	ab 81       	ldd	r26, Y+3	; 0x03
 afc:	bc 81       	ldd	r27, Y+4	; 0x04
 afe:	00 97       	sbiw	r24, 0x00	; 0
 b00:	a1 05       	cpc	r26, r1
 b02:	b1 05       	cpc	r27, r1
 b04:	61 f7       	brne	.-40     	; 0xade <LCD_VoidInit+0xec>
	LCD_VoidCmd(0x01);
	Delay_ms_Max1s(1);
	#endif

	return;
}
 b06:	60 96       	adiw	r28, 0x10	; 16
 b08:	0f b6       	in	r0, 0x3f	; 63
 b0a:	f8 94       	cli
 b0c:	de bf       	out	0x3e, r29	; 62
 b0e:	0f be       	out	0x3f, r0	; 63
 b10:	cd bf       	out	0x3d, r28	; 61
 b12:	cf 91       	pop	r28
 b14:	df 91       	pop	r29
 b16:	08 95       	ret

00000b18 <LCD_VoidString>:
/*****************************************************************/
void LCD_VoidString(u8 *LCD_u8Ptr)
{
 b18:	df 93       	push	r29
 b1a:	cf 93       	push	r28
 b1c:	00 d0       	rcall	.+0      	; 0xb1e <LCD_VoidString+0x6>
 b1e:	cd b7       	in	r28, 0x3d	; 61
 b20:	de b7       	in	r29, 0x3e	; 62
 b22:	9a 83       	std	Y+2, r25	; 0x02
 b24:	89 83       	std	Y+1, r24	; 0x01
 b26:	0b c0       	rjmp	.+22     	; 0xb3e <LCD_VoidString+0x26>
	while(*LCD_u8Ptr)
	{
		LCD_VoidData(*LCD_u8Ptr++);
 b28:	e9 81       	ldd	r30, Y+1	; 0x01
 b2a:	fa 81       	ldd	r31, Y+2	; 0x02
 b2c:	20 81       	ld	r18, Z
 b2e:	89 81       	ldd	r24, Y+1	; 0x01
 b30:	9a 81       	ldd	r25, Y+2	; 0x02
 b32:	01 96       	adiw	r24, 0x01	; 1
 b34:	9a 83       	std	Y+2, r25	; 0x02
 b36:	89 83       	std	Y+1, r24	; 0x01
 b38:	82 2f       	mov	r24, r18
 b3a:	0e 94 c4 03 	call	0x788	; 0x788 <LCD_VoidData>
	return;
}
/*****************************************************************/
void LCD_VoidString(u8 *LCD_u8Ptr)
{
	while(*LCD_u8Ptr)
 b3e:	e9 81       	ldd	r30, Y+1	; 0x01
 b40:	fa 81       	ldd	r31, Y+2	; 0x02
 b42:	80 81       	ld	r24, Z
 b44:	88 23       	and	r24, r24
 b46:	81 f7       	brne	.-32     	; 0xb28 <LCD_VoidString+0x10>
	{
		LCD_VoidData(*LCD_u8Ptr++);
	}
	return;
}
 b48:	0f 90       	pop	r0
 b4a:	0f 90       	pop	r0
 b4c:	cf 91       	pop	r28
 b4e:	df 91       	pop	r29
 b50:	08 95       	ret

00000b52 <LCD_VoidRow>:
/*********************************************************************************************/

void LCD_VoidRow(u8 LCD_u8no)//elsf elawl wla eltany
{
 b52:	df 93       	push	r29
 b54:	cf 93       	push	r28
 b56:	0f 92       	push	r0
 b58:	cd b7       	in	r28, 0x3d	; 61
 b5a:	de b7       	in	r29, 0x3e	; 62
 b5c:	89 83       	std	Y+1, r24	; 0x01
	if (LCD_u8no == 1)
 b5e:	89 81       	ldd	r24, Y+1	; 0x01
 b60:	81 30       	cpi	r24, 0x01	; 1
 b62:	19 f4       	brne	.+6      	; 0xb6a <LCD_VoidRow+0x18>
	{
		LCD_VoidCmd(0x80); // sf awl
 b64:	80 e8       	ldi	r24, 0x80	; 128
 b66:	0e 94 25 03 	call	0x64a	; 0x64a <LCD_VoidCmd>
	}
	if (LCD_u8no ==2)
 b6a:	89 81       	ldd	r24, Y+1	; 0x01
 b6c:	82 30       	cpi	r24, 0x02	; 2
 b6e:	19 f4       	brne	.+6      	; 0xb76 <LCD_VoidRow+0x24>
	{
		LCD_VoidCmd(0xC0); //sf tany
 b70:	80 ec       	ldi	r24, 0xC0	; 192
 b72:	0e 94 25 03 	call	0x64a	; 0x64a <LCD_VoidCmd>
	}
}
 b76:	0f 90       	pop	r0
 b78:	cf 91       	pop	r28
 b7a:	df 91       	pop	r29
 b7c:	08 95       	ret

00000b7e <LCD_VoidRowString>:
/*********************************************************************************************/

void LCD_VoidRowString (u8 LCD_u8row,u8 *LCD_u8String) //(rkm el sf,"el2sm ely 3ais tktbo")
{
 b7e:	df 93       	push	r29
 b80:	cf 93       	push	r28
 b82:	00 d0       	rcall	.+0      	; 0xb84 <LCD_VoidRowString+0x6>
 b84:	0f 92       	push	r0
 b86:	cd b7       	in	r28, 0x3d	; 61
 b88:	de b7       	in	r29, 0x3e	; 62
 b8a:	89 83       	std	Y+1, r24	; 0x01
 b8c:	7b 83       	std	Y+3, r23	; 0x03
 b8e:	6a 83       	std	Y+2, r22	; 0x02
	LCD_VoidRow(LCD_u8row);
 b90:	89 81       	ldd	r24, Y+1	; 0x01
 b92:	0e 94 a9 05 	call	0xb52	; 0xb52 <LCD_VoidRow>
 b96:	0b c0       	rjmp	.+22     	; 0xbae <LCD_VoidRowString+0x30>
	///*
	 while (*LCD_u8String)
	{
		LCD_VoidData(*LCD_u8String++);
 b98:	ea 81       	ldd	r30, Y+2	; 0x02
 b9a:	fb 81       	ldd	r31, Y+3	; 0x03
 b9c:	20 81       	ld	r18, Z
 b9e:	8a 81       	ldd	r24, Y+2	; 0x02
 ba0:	9b 81       	ldd	r25, Y+3	; 0x03
 ba2:	01 96       	adiw	r24, 0x01	; 1
 ba4:	9b 83       	std	Y+3, r25	; 0x03
 ba6:	8a 83       	std	Y+2, r24	; 0x02
 ba8:	82 2f       	mov	r24, r18
 baa:	0e 94 c4 03 	call	0x788	; 0x788 <LCD_VoidData>

void LCD_VoidRowString (u8 LCD_u8row,u8 *LCD_u8String) //(rkm el sf,"el2sm ely 3ais tktbo")
{
	LCD_VoidRow(LCD_u8row);
	///*
	 while (*LCD_u8String)
 bae:	ea 81       	ldd	r30, Y+2	; 0x02
 bb0:	fb 81       	ldd	r31, Y+3	; 0x03
 bb2:	80 81       	ld	r24, Z
 bb4:	88 23       	and	r24, r24
 bb6:	81 f7       	brne	.-32     	; 0xb98 <LCD_VoidRowString+0x1a>
	{
		LCD_VoidData(*LCD_u8String++);
	}
	//*/
	//LCD_VoidString(LCD_u8String);
}
 bb8:	0f 90       	pop	r0
 bba:	0f 90       	pop	r0
 bbc:	0f 90       	pop	r0
 bbe:	cf 91       	pop	r28
 bc0:	df 91       	pop	r29
 bc2:	08 95       	ret

00000bc4 <LCD_VoidGotoxy>:
/*********************************************************************************************/

void LCD_VoidGotoxy(u8 LCD_u8x,u8 LCD_u8y)//(rkm el3mod,rkm elsf)
 {
 bc4:	df 93       	push	r29
 bc6:	cf 93       	push	r28
 bc8:	00 d0       	rcall	.+0      	; 0xbca <LCD_VoidGotoxy+0x6>
 bca:	cd b7       	in	r28, 0x3d	; 61
 bcc:	de b7       	in	r29, 0x3e	; 62
 bce:	89 83       	std	Y+1, r24	; 0x01
 bd0:	6a 83       	std	Y+2, r22	; 0x02
    if(LCD_u8y == 1)
 bd2:	8a 81       	ldd	r24, Y+2	; 0x02
 bd4:	81 30       	cpi	r24, 0x01	; 1
 bd6:	21 f4       	brne	.+8      	; 0xbe0 <LCD_VoidGotoxy+0x1c>
    {
        LCD_VoidCmd(0x80+LCD_u8x);
 bd8:	89 81       	ldd	r24, Y+1	; 0x01
 bda:	80 58       	subi	r24, 0x80	; 128
 bdc:	0e 94 25 03 	call	0x64a	; 0x64a <LCD_VoidCmd>
    }
    if(LCD_u8y == 2)
 be0:	8a 81       	ldd	r24, Y+2	; 0x02
 be2:	82 30       	cpi	r24, 0x02	; 2
 be4:	21 f4       	brne	.+8      	; 0xbee <LCD_VoidGotoxy+0x2a>
     {
        LCD_VoidCmd(0xc0+LCD_u8x);
 be6:	89 81       	ldd	r24, Y+1	; 0x01
 be8:	80 54       	subi	r24, 0x40	; 64
 bea:	0e 94 25 03 	call	0x64a	; 0x64a <LCD_VoidCmd>
     }
 }
 bee:	0f 90       	pop	r0
 bf0:	0f 90       	pop	r0
 bf2:	cf 91       	pop	r28
 bf4:	df 91       	pop	r29
 bf6:	08 95       	ret

00000bf8 <LCD_VoidSendStringxy>:
/*********************************************************************************************/

void LCD_VoidSendStringxy(u8 *LCD_u8str,u8 LCD_u8x,u8 LCD_u8y)//("aktb ely 3aizo",rkm anhih 7th fy el3mod ,rkm el sf)
{
 bf8:	df 93       	push	r29
 bfa:	cf 93       	push	r28
 bfc:	00 d0       	rcall	.+0      	; 0xbfe <LCD_VoidSendStringxy+0x6>
 bfe:	00 d0       	rcall	.+0      	; 0xc00 <LCD_VoidSendStringxy+0x8>
 c00:	cd b7       	in	r28, 0x3d	; 61
 c02:	de b7       	in	r29, 0x3e	; 62
 c04:	9a 83       	std	Y+2, r25	; 0x02
 c06:	89 83       	std	Y+1, r24	; 0x01
 c08:	6b 83       	std	Y+3, r22	; 0x03
 c0a:	4c 83       	std	Y+4, r20	; 0x04
     LCD_VoidGotoxy(LCD_u8x,LCD_u8y);
 c0c:	8b 81       	ldd	r24, Y+3	; 0x03
 c0e:	6c 81       	ldd	r22, Y+4	; 0x04
 c10:	0e 94 e2 05 	call	0xbc4	; 0xbc4 <LCD_VoidGotoxy>
     LCD_VoidString(LCD_u8str);
 c14:	89 81       	ldd	r24, Y+1	; 0x01
 c16:	9a 81       	ldd	r25, Y+2	; 0x02
 c18:	0e 94 8c 05 	call	0xb18	; 0xb18 <LCD_VoidString>
}
 c1c:	0f 90       	pop	r0
 c1e:	0f 90       	pop	r0
 c20:	0f 90       	pop	r0
 c22:	0f 90       	pop	r0
 c24:	cf 91       	pop	r28
 c26:	df 91       	pop	r29
 c28:	08 95       	ret

00000c2a <LCD_VoidClearScreen>:
/*********************************************************************************************/

void LCD_VoidClearScreen(void)
{
 c2a:	df 93       	push	r29
 c2c:	cf 93       	push	r28
 c2e:	cd b7       	in	r28, 0x3d	; 61
 c30:	de b7       	in	r29, 0x3e	; 62
	LCD_VoidCmd(0x01);
 c32:	81 e0       	ldi	r24, 0x01	; 1
 c34:	0e 94 25 03 	call	0x64a	; 0x64a <LCD_VoidCmd>
}
 c38:	cf 91       	pop	r28
 c3a:	df 91       	pop	r29
 c3c:	08 95       	ret

00000c3e <LCD_u16ReturnString>:
/*********************************************************************************************/

u16* LCD_u16ReturnString(u16 inputValue)
{
 c3e:	df 93       	push	r29
 c40:	cf 93       	push	r28
 c42:	00 d0       	rcall	.+0      	; 0xc44 <LCD_u16ReturnString+0x6>
 c44:	0f 92       	push	r0
 c46:	cd b7       	in	r28, 0x3d	; 61
 c48:	de b7       	in	r29, 0x3e	; 62
 c4a:	9b 83       	std	Y+3, r25	; 0x03
 c4c:	8a 83       	std	Y+2, r24	; 0x02
    static u16 Local_u16ProcessedString[5]; // Return a string of 3 digits.
    u8 Local_u8Counter=0; // Brute-force counter for first digit.
 c4e:	19 82       	std	Y+1, r1	; 0x01

    if (inputValue < 99)
 c50:	8a 81       	ldd	r24, Y+2	; 0x02
 c52:	9b 81       	ldd	r25, Y+3	; 0x03
 c54:	83 36       	cpi	r24, 0x63	; 99
 c56:	91 05       	cpc	r25, r1
 c58:	90 f5       	brcc	.+100    	; 0xcbe <LCD_u16ReturnString+0x80>
    {
    	Local_u16ProcessedString[Local_u8Counter++]=inputValue / 10 +'0'; //first number
 c5a:	89 81       	ldd	r24, Y+1	; 0x01
 c5c:	e8 2f       	mov	r30, r24
 c5e:	f0 e0       	ldi	r31, 0x00	; 0
 c60:	8a 81       	ldd	r24, Y+2	; 0x02
 c62:	9b 81       	ldd	r25, Y+3	; 0x03
 c64:	2a e0       	ldi	r18, 0x0A	; 10
 c66:	30 e0       	ldi	r19, 0x00	; 0
 c68:	b9 01       	movw	r22, r18
 c6a:	0e 94 23 07 	call	0xe46	; 0xe46 <__udivmodhi4>
 c6e:	cb 01       	movw	r24, r22
 c70:	9c 01       	movw	r18, r24
 c72:	20 5d       	subi	r18, 0xD0	; 208
 c74:	3f 4f       	sbci	r19, 0xFF	; 255
 c76:	cf 01       	movw	r24, r30
 c78:	88 0f       	add	r24, r24
 c7a:	99 1f       	adc	r25, r25
 c7c:	fc 01       	movw	r30, r24
 c7e:	e4 56       	subi	r30, 0x64	; 100
 c80:	ff 4f       	sbci	r31, 0xFF	; 255
 c82:	31 83       	std	Z+1, r19	; 0x01
 c84:	20 83       	st	Z, r18
 c86:	89 81       	ldd	r24, Y+1	; 0x01
 c88:	8f 5f       	subi	r24, 0xFF	; 255
 c8a:	89 83       	std	Y+1, r24	; 0x01
    	Local_u16ProcessedString[Local_u8Counter++]=inputValue % 10 +'0';//Second number
 c8c:	89 81       	ldd	r24, Y+1	; 0x01
 c8e:	e8 2f       	mov	r30, r24
 c90:	f0 e0       	ldi	r31, 0x00	; 0
 c92:	8a 81       	ldd	r24, Y+2	; 0x02
 c94:	9b 81       	ldd	r25, Y+3	; 0x03
 c96:	2a e0       	ldi	r18, 0x0A	; 10
 c98:	30 e0       	ldi	r19, 0x00	; 0
 c9a:	b9 01       	movw	r22, r18
 c9c:	0e 94 23 07 	call	0xe46	; 0xe46 <__udivmodhi4>
 ca0:	9c 01       	movw	r18, r24
 ca2:	20 5d       	subi	r18, 0xD0	; 208
 ca4:	3f 4f       	sbci	r19, 0xFF	; 255
 ca6:	cf 01       	movw	r24, r30
 ca8:	88 0f       	add	r24, r24
 caa:	99 1f       	adc	r25, r25
 cac:	fc 01       	movw	r30, r24
 cae:	e4 56       	subi	r30, 0x64	; 100
 cb0:	ff 4f       	sbci	r31, 0xFF	; 255
 cb2:	31 83       	std	Z+1, r19	; 0x01
 cb4:	20 83       	st	Z, r18
 cb6:	89 81       	ldd	r24, Y+1	; 0x01
 cb8:	8f 5f       	subi	r24, 0xFF	; 255
 cba:	89 83       	std	Y+1, r24	; 0x01
 cbc:	b2 c0       	rjmp	.+356    	; 0xe22 <LCD_u16ReturnString+0x1e4>
    }
    else if (inputValue < 999)
 cbe:	8a 81       	ldd	r24, Y+2	; 0x02
 cc0:	9b 81       	ldd	r25, Y+3	; 0x03
 cc2:	23 e0       	ldi	r18, 0x03	; 3
 cc4:	87 3e       	cpi	r24, 0xE7	; 231
 cc6:	92 07       	cpc	r25, r18
 cc8:	08 f0       	brcs	.+2      	; 0xccc <LCD_u16ReturnString+0x8e>
 cca:	50 c0       	rjmp	.+160    	; 0xd6c <LCD_u16ReturnString+0x12e>
    {
    	Local_u16ProcessedString[Local_u8Counter++]=(inputValue / 100) +'0'; //first number
 ccc:	89 81       	ldd	r24, Y+1	; 0x01
 cce:	e8 2f       	mov	r30, r24
 cd0:	f0 e0       	ldi	r31, 0x00	; 0
 cd2:	8a 81       	ldd	r24, Y+2	; 0x02
 cd4:	9b 81       	ldd	r25, Y+3	; 0x03
 cd6:	24 e6       	ldi	r18, 0x64	; 100
 cd8:	30 e0       	ldi	r19, 0x00	; 0
 cda:	b9 01       	movw	r22, r18
 cdc:	0e 94 23 07 	call	0xe46	; 0xe46 <__udivmodhi4>
 ce0:	cb 01       	movw	r24, r22
 ce2:	9c 01       	movw	r18, r24
 ce4:	20 5d       	subi	r18, 0xD0	; 208
 ce6:	3f 4f       	sbci	r19, 0xFF	; 255
 ce8:	cf 01       	movw	r24, r30
 cea:	88 0f       	add	r24, r24
 cec:	99 1f       	adc	r25, r25
 cee:	fc 01       	movw	r30, r24
 cf0:	e4 56       	subi	r30, 0x64	; 100
 cf2:	ff 4f       	sbci	r31, 0xFF	; 255
 cf4:	31 83       	std	Z+1, r19	; 0x01
 cf6:	20 83       	st	Z, r18
 cf8:	89 81       	ldd	r24, Y+1	; 0x01
 cfa:	8f 5f       	subi	r24, 0xFF	; 255
 cfc:	89 83       	std	Y+1, r24	; 0x01
    	Local_u16ProcessedString[Local_u8Counter++]=((inputValue / 10) % 10) +'0';//Second number
 cfe:	89 81       	ldd	r24, Y+1	; 0x01
 d00:	e8 2f       	mov	r30, r24
 d02:	f0 e0       	ldi	r31, 0x00	; 0
 d04:	8a 81       	ldd	r24, Y+2	; 0x02
 d06:	9b 81       	ldd	r25, Y+3	; 0x03
 d08:	2a e0       	ldi	r18, 0x0A	; 10
 d0a:	30 e0       	ldi	r19, 0x00	; 0
 d0c:	b9 01       	movw	r22, r18
 d0e:	0e 94 23 07 	call	0xe46	; 0xe46 <__udivmodhi4>
 d12:	cb 01       	movw	r24, r22
 d14:	2a e0       	ldi	r18, 0x0A	; 10
 d16:	30 e0       	ldi	r19, 0x00	; 0
 d18:	b9 01       	movw	r22, r18
 d1a:	0e 94 23 07 	call	0xe46	; 0xe46 <__udivmodhi4>
 d1e:	9c 01       	movw	r18, r24
 d20:	20 5d       	subi	r18, 0xD0	; 208
 d22:	3f 4f       	sbci	r19, 0xFF	; 255
 d24:	cf 01       	movw	r24, r30
 d26:	88 0f       	add	r24, r24
 d28:	99 1f       	adc	r25, r25
 d2a:	fc 01       	movw	r30, r24
 d2c:	e4 56       	subi	r30, 0x64	; 100
 d2e:	ff 4f       	sbci	r31, 0xFF	; 255
 d30:	31 83       	std	Z+1, r19	; 0x01
 d32:	20 83       	st	Z, r18
 d34:	89 81       	ldd	r24, Y+1	; 0x01
 d36:	8f 5f       	subi	r24, 0xFF	; 255
 d38:	89 83       	std	Y+1, r24	; 0x01
    	Local_u16ProcessedString[Local_u8Counter++]=inputValue % 10 +'0';//Third number
 d3a:	89 81       	ldd	r24, Y+1	; 0x01
 d3c:	e8 2f       	mov	r30, r24
 d3e:	f0 e0       	ldi	r31, 0x00	; 0
 d40:	8a 81       	ldd	r24, Y+2	; 0x02
 d42:	9b 81       	ldd	r25, Y+3	; 0x03
 d44:	2a e0       	ldi	r18, 0x0A	; 10
 d46:	30 e0       	ldi	r19, 0x00	; 0
 d48:	b9 01       	movw	r22, r18
 d4a:	0e 94 23 07 	call	0xe46	; 0xe46 <__udivmodhi4>
 d4e:	9c 01       	movw	r18, r24
 d50:	20 5d       	subi	r18, 0xD0	; 208
 d52:	3f 4f       	sbci	r19, 0xFF	; 255
 d54:	cf 01       	movw	r24, r30
 d56:	88 0f       	add	r24, r24
 d58:	99 1f       	adc	r25, r25
 d5a:	fc 01       	movw	r30, r24
 d5c:	e4 56       	subi	r30, 0x64	; 100
 d5e:	ff 4f       	sbci	r31, 0xFF	; 255
 d60:	31 83       	std	Z+1, r19	; 0x01
 d62:	20 83       	st	Z, r18
 d64:	89 81       	ldd	r24, Y+1	; 0x01
 d66:	8f 5f       	subi	r24, 0xFF	; 255
 d68:	89 83       	std	Y+1, r24	; 0x01
 d6a:	5b c0       	rjmp	.+182    	; 0xe22 <LCD_u16ReturnString+0x1e4>
    }
    else if (inputValue < 1024)
 d6c:	8a 81       	ldd	r24, Y+2	; 0x02
 d6e:	9b 81       	ldd	r25, Y+3	; 0x03
 d70:	24 e0       	ldi	r18, 0x04	; 4
 d72:	80 30       	cpi	r24, 0x00	; 0
 d74:	92 07       	cpc	r25, r18
 d76:	08 f0       	brcs	.+2      	; 0xd7a <LCD_u16ReturnString+0x13c>
 d78:	54 c0       	rjmp	.+168    	; 0xe22 <LCD_u16ReturnString+0x1e4>
    {
    	Local_u16ProcessedString[Local_u8Counter++]='1'; //first number
 d7a:	89 81       	ldd	r24, Y+1	; 0x01
 d7c:	88 2f       	mov	r24, r24
 d7e:	90 e0       	ldi	r25, 0x00	; 0
 d80:	88 0f       	add	r24, r24
 d82:	99 1f       	adc	r25, r25
 d84:	fc 01       	movw	r30, r24
 d86:	e4 56       	subi	r30, 0x64	; 100
 d88:	ff 4f       	sbci	r31, 0xFF	; 255
 d8a:	81 e3       	ldi	r24, 0x31	; 49
 d8c:	90 e0       	ldi	r25, 0x00	; 0
 d8e:	91 83       	std	Z+1, r25	; 0x01
 d90:	80 83       	st	Z, r24
 d92:	89 81       	ldd	r24, Y+1	; 0x01
 d94:	8f 5f       	subi	r24, 0xFF	; 255
 d96:	89 83       	std	Y+1, r24	; 0x01
    	Local_u16ProcessedString[Local_u8Counter++]='0'; //Second number
 d98:	89 81       	ldd	r24, Y+1	; 0x01
 d9a:	88 2f       	mov	r24, r24
 d9c:	90 e0       	ldi	r25, 0x00	; 0
 d9e:	88 0f       	add	r24, r24
 da0:	99 1f       	adc	r25, r25
 da2:	fc 01       	movw	r30, r24
 da4:	e4 56       	subi	r30, 0x64	; 100
 da6:	ff 4f       	sbci	r31, 0xFF	; 255
 da8:	80 e3       	ldi	r24, 0x30	; 48
 daa:	90 e0       	ldi	r25, 0x00	; 0
 dac:	91 83       	std	Z+1, r25	; 0x01
 dae:	80 83       	st	Z, r24
 db0:	89 81       	ldd	r24, Y+1	; 0x01
 db2:	8f 5f       	subi	r24, 0xFF	; 255
 db4:	89 83       	std	Y+1, r24	; 0x01
    	Local_u16ProcessedString[Local_u8Counter++]=((inputValue / 10) % 10) +'0';//Third number
 db6:	89 81       	ldd	r24, Y+1	; 0x01
 db8:	e8 2f       	mov	r30, r24
 dba:	f0 e0       	ldi	r31, 0x00	; 0
 dbc:	8a 81       	ldd	r24, Y+2	; 0x02
 dbe:	9b 81       	ldd	r25, Y+3	; 0x03
 dc0:	2a e0       	ldi	r18, 0x0A	; 10
 dc2:	30 e0       	ldi	r19, 0x00	; 0
 dc4:	b9 01       	movw	r22, r18
 dc6:	0e 94 23 07 	call	0xe46	; 0xe46 <__udivmodhi4>
 dca:	cb 01       	movw	r24, r22
 dcc:	2a e0       	ldi	r18, 0x0A	; 10
 dce:	30 e0       	ldi	r19, 0x00	; 0
 dd0:	b9 01       	movw	r22, r18
 dd2:	0e 94 23 07 	call	0xe46	; 0xe46 <__udivmodhi4>
 dd6:	9c 01       	movw	r18, r24
 dd8:	20 5d       	subi	r18, 0xD0	; 208
 dda:	3f 4f       	sbci	r19, 0xFF	; 255
 ddc:	cf 01       	movw	r24, r30
 dde:	88 0f       	add	r24, r24
 de0:	99 1f       	adc	r25, r25
 de2:	fc 01       	movw	r30, r24
 de4:	e4 56       	subi	r30, 0x64	; 100
 de6:	ff 4f       	sbci	r31, 0xFF	; 255
 de8:	31 83       	std	Z+1, r19	; 0x01
 dea:	20 83       	st	Z, r18
 dec:	89 81       	ldd	r24, Y+1	; 0x01
 dee:	8f 5f       	subi	r24, 0xFF	; 255
 df0:	89 83       	std	Y+1, r24	; 0x01
    	Local_u16ProcessedString[Local_u8Counter++]=inputValue % 10 +'0';//Forth number
 df2:	89 81       	ldd	r24, Y+1	; 0x01
 df4:	e8 2f       	mov	r30, r24
 df6:	f0 e0       	ldi	r31, 0x00	; 0
 df8:	8a 81       	ldd	r24, Y+2	; 0x02
 dfa:	9b 81       	ldd	r25, Y+3	; 0x03
 dfc:	2a e0       	ldi	r18, 0x0A	; 10
 dfe:	30 e0       	ldi	r19, 0x00	; 0
 e00:	b9 01       	movw	r22, r18
 e02:	0e 94 23 07 	call	0xe46	; 0xe46 <__udivmodhi4>
 e06:	9c 01       	movw	r18, r24
 e08:	20 5d       	subi	r18, 0xD0	; 208
 e0a:	3f 4f       	sbci	r19, 0xFF	; 255
 e0c:	cf 01       	movw	r24, r30
 e0e:	88 0f       	add	r24, r24
 e10:	99 1f       	adc	r25, r25
 e12:	fc 01       	movw	r30, r24
 e14:	e4 56       	subi	r30, 0x64	; 100
 e16:	ff 4f       	sbci	r31, 0xFF	; 255
 e18:	31 83       	std	Z+1, r19	; 0x01
 e1a:	20 83       	st	Z, r18
 e1c:	89 81       	ldd	r24, Y+1	; 0x01
 e1e:	8f 5f       	subi	r24, 0xFF	; 255
 e20:	89 83       	std	Y+1, r24	; 0x01
    }
    else;//nothing

    Local_u16ProcessedString[Local_u8Counter]='\0';//last number
 e22:	89 81       	ldd	r24, Y+1	; 0x01
 e24:	88 2f       	mov	r24, r24
 e26:	90 e0       	ldi	r25, 0x00	; 0
 e28:	88 0f       	add	r24, r24
 e2a:	99 1f       	adc	r25, r25
 e2c:	fc 01       	movw	r30, r24
 e2e:	e4 56       	subi	r30, 0x64	; 100
 e30:	ff 4f       	sbci	r31, 0xFF	; 255
 e32:	11 82       	std	Z+1, r1	; 0x01
 e34:	10 82       	st	Z, r1
    return Local_u16ProcessedString; // Return the processed string.
 e36:	8c e9       	ldi	r24, 0x9C	; 156
 e38:	90 e0       	ldi	r25, 0x00	; 0
}
 e3a:	0f 90       	pop	r0
 e3c:	0f 90       	pop	r0
 e3e:	0f 90       	pop	r0
 e40:	cf 91       	pop	r28
 e42:	df 91       	pop	r29
 e44:	08 95       	ret

00000e46 <__udivmodhi4>:
 e46:	aa 1b       	sub	r26, r26
 e48:	bb 1b       	sub	r27, r27
 e4a:	51 e1       	ldi	r21, 0x11	; 17
 e4c:	07 c0       	rjmp	.+14     	; 0xe5c <__udivmodhi4_ep>

00000e4e <__udivmodhi4_loop>:
 e4e:	aa 1f       	adc	r26, r26
 e50:	bb 1f       	adc	r27, r27
 e52:	a6 17       	cp	r26, r22
 e54:	b7 07       	cpc	r27, r23
 e56:	10 f0       	brcs	.+4      	; 0xe5c <__udivmodhi4_ep>
 e58:	a6 1b       	sub	r26, r22
 e5a:	b7 0b       	sbc	r27, r23

00000e5c <__udivmodhi4_ep>:
 e5c:	88 1f       	adc	r24, r24
 e5e:	99 1f       	adc	r25, r25
 e60:	5a 95       	dec	r21
 e62:	a9 f7       	brne	.-22     	; 0xe4e <__udivmodhi4_loop>
 e64:	80 95       	com	r24
 e66:	90 95       	com	r25
 e68:	bc 01       	movw	r22, r24
 e6a:	cd 01       	movw	r24, r26
 e6c:	08 95       	ret

00000e6e <_exit>:
 e6e:	f8 94       	cli

00000e70 <__stop_program>:
 e70:	ff cf       	rjmp	.-2      	; 0xe70 <__stop_program>
